
kernel/kernel:     file format elf32-i386


Disassembly of section .text:

00100000 <kernel_start>:
  100000:	02 b0 ad 1b 00 00    	add    0x1bad(%eax),%dh
  100006:	00 00                	add    %al,(%eax)
  100008:	fe 4f 52             	decb   0x52(%edi)
  10000b:	e4                   	.byte 0xe4

0010000c <init>:
  10000c:	55                   	push   %ebp
  10000d:	89 e5                	mov    %esp,%ebp
  10000f:	53                   	push   %ebx
  100010:	83 ec 04             	sub    $0x4,%esp
  100013:	e8 a5 38 00 00       	call   1038bd <__x86.get_pc_thunk.bx>
  100018:	81 c3 08 43 00 00    	add    $0x4308,%ebx
  10001e:	e8 71 16 00 00       	call   101694 <clearScreen>
  100023:	e8 af 35 00 00       	call   1035d7 <init_vmm>
  100028:	83 ec 0c             	sub    $0xc,%esp
  10002b:	ff 75 08             	pushl  0x8(%ebp)
  10002e:	e8 1d 33 00 00       	call   103350 <init_pmm>
  100033:	83 c4 10             	add    $0x10,%esp
  100036:	e8 1c 02 00 00       	call   100257 <init_gdt>
  10003b:	e8 3c 05 00 00       	call   10057c <init_idt>
  100040:	83 ec 0c             	sub    $0xc,%esp
  100043:	ff 75 08             	pushl  0x8(%ebp)
  100046:	e8 b3 14 00 00       	call   1014fe <init_multitasking>
  10004b:	83 c4 10             	add    $0x10,%esp
  10004e:	eb fe                	jmp    10004e <init+0x42>

00100050 <set_gdt_entry>:
  100050:	55                   	push   %ebp
  100051:	89 e5                	mov    %esp,%ebp
  100053:	57                   	push   %edi
  100054:	56                   	push   %esi
  100055:	53                   	push   %ebx
  100056:	83 ec 4c             	sub    $0x4c,%esp
  100059:	e8 67 38 00 00       	call   1038c5 <__x86.get_pc_thunk.dx>
  10005e:	81 c2 c2 42 00 00    	add    $0x42c2,%edx
  100064:	89 55 e8             	mov    %edx,-0x18(%ebp)
  100067:	8b 45 10             	mov    0x10(%ebp),%eax
  10006a:	ba 00 00 00 00       	mov    $0x0,%edx
  10006f:	0f b7 c8             	movzwl %ax,%ecx
  100072:	89 d0                	mov    %edx,%eax
  100074:	83 e0 00             	and    $0x0,%eax
  100077:	89 c3                	mov    %eax,%ebx
  100079:	8b 45 08             	mov    0x8(%ebp),%eax
  10007c:	8b 55 e8             	mov    -0x18(%ebp),%edx
  10007f:	89 8c c2 e0 1c 00 00 	mov    %ecx,0x1ce0(%edx,%eax,8)
  100086:	89 9c c2 e4 1c 00 00 	mov    %ebx,0x1ce4(%edx,%eax,8)
  10008d:	8b 45 08             	mov    0x8(%ebp),%eax
  100090:	89 d1                	mov    %edx,%ecx
  100092:	89 ca                	mov    %ecx,%edx
  100094:	8d 94 c2 e0 1c 00 00 	lea    0x1ce0(%edx,%eax,8),%edx
  10009b:	8b 02                	mov    (%edx),%eax
  10009d:	8b 52 04             	mov    0x4(%edx),%edx
  1000a0:	89 45 e8             	mov    %eax,-0x18(%ebp)
  1000a3:	89 55 ec             	mov    %edx,-0x14(%ebp)
  1000a6:	8b 45 0c             	mov    0xc(%ebp),%eax
  1000a9:	ba 00 00 00 00       	mov    $0x0,%edx
  1000ae:	0f a4 c2 10          	shld   $0x10,%eax,%edx
  1000b2:	c1 e0 10             	shl    $0x10,%eax
  1000b5:	89 c3                	mov    %eax,%ebx
  1000b7:	66 bb 00 00          	mov    $0x0,%bx
  1000bb:	89 de                	mov    %ebx,%esi
  1000bd:	0f b6 fa             	movzbl %dl,%edi
  1000c0:	8b 45 e8             	mov    -0x18(%ebp),%eax
  1000c3:	09 f0                	or     %esi,%eax
  1000c5:	89 45 e0             	mov    %eax,-0x20(%ebp)
  1000c8:	8b 45 ec             	mov    -0x14(%ebp),%eax
  1000cb:	09 f8                	or     %edi,%eax
  1000cd:	89 45 e4             	mov    %eax,-0x1c(%ebp)
  1000d0:	8b 45 08             	mov    0x8(%ebp),%eax
  1000d3:	89 cf                	mov    %ecx,%edi
  1000d5:	8b 5d e0             	mov    -0x20(%ebp),%ebx
  1000d8:	8b 75 e4             	mov    -0x1c(%ebp),%esi
  1000db:	89 9c c7 e0 1c 00 00 	mov    %ebx,0x1ce0(%edi,%eax,8)
  1000e2:	89 b4 c7 e4 1c 00 00 	mov    %esi,0x1ce4(%edi,%eax,8)
  1000e9:	8b 45 08             	mov    0x8(%ebp),%eax
  1000ec:	89 cf                	mov    %ecx,%edi
  1000ee:	8b 8c c7 e0 1c 00 00 	mov    0x1ce0(%edi,%eax,8),%ecx
  1000f5:	8b 9c c7 e4 1c 00 00 	mov    0x1ce4(%edi,%eax,8),%ebx
  1000fc:	8b 45 14             	mov    0x14(%ebp),%eax
  1000ff:	99                   	cltd   
  100100:	89 c2                	mov    %eax,%edx
  100102:	b8 00 00 00 00       	mov    $0x0,%eax
  100107:	c1 e2 08             	shl    $0x8,%edx
  10010a:	89 c6                	mov    %eax,%esi
  10010c:	83 e6 00             	and    $0x0,%esi
  10010f:	89 75 d8             	mov    %esi,-0x28(%ebp)
  100112:	89 d0                	mov    %edx,%eax
  100114:	25 00 ff 00 00       	and    $0xff00,%eax
  100119:	89 45 dc             	mov    %eax,-0x24(%ebp)
  10011c:	8b 45 d8             	mov    -0x28(%ebp),%eax
  10011f:	8b 55 dc             	mov    -0x24(%ebp),%edx
  100122:	89 c6                	mov    %eax,%esi
  100124:	09 ce                	or     %ecx,%esi
  100126:	89 75 d0             	mov    %esi,-0x30(%ebp)
  100129:	09 d3                	or     %edx,%ebx
  10012b:	89 5d d4             	mov    %ebx,-0x2c(%ebp)
  10012e:	8b 45 08             	mov    0x8(%ebp),%eax
  100131:	8b 5d d0             	mov    -0x30(%ebp),%ebx
  100134:	8b 75 d4             	mov    -0x2c(%ebp),%esi
  100137:	89 9c c7 e0 1c 00 00 	mov    %ebx,0x1ce0(%edi,%eax,8)
  10013e:	89 b4 c7 e4 1c 00 00 	mov    %esi,0x1ce4(%edi,%eax,8)
  100145:	8b 45 08             	mov    0x8(%ebp),%eax
  100148:	8b 8c c7 e0 1c 00 00 	mov    0x1ce0(%edi,%eax,8),%ecx
  10014f:	8b 9c c7 e4 1c 00 00 	mov    0x1ce4(%edi,%eax,8),%ebx
  100156:	8b 45 10             	mov    0x10(%ebp),%eax
  100159:	c1 e8 10             	shr    $0x10,%eax
  10015c:	ba 00 00 00 00       	mov    $0x0,%edx
  100161:	89 c2                	mov    %eax,%edx
  100163:	b8 00 00 00 00       	mov    $0x0,%eax
  100168:	c1 e2 10             	shl    $0x10,%edx
  10016b:	89 c6                	mov    %eax,%esi
  10016d:	83 e6 00             	and    $0x0,%esi
  100170:	89 75 c8             	mov    %esi,-0x38(%ebp)
  100173:	89 d0                	mov    %edx,%eax
  100175:	25 00 00 0f 00       	and    $0xf0000,%eax
  10017a:	89 45 cc             	mov    %eax,-0x34(%ebp)
  10017d:	8b 45 c8             	mov    -0x38(%ebp),%eax
  100180:	8b 55 cc             	mov    -0x34(%ebp),%edx
  100183:	89 c6                	mov    %eax,%esi
  100185:	09 ce                	or     %ecx,%esi
  100187:	89 75 c0             	mov    %esi,-0x40(%ebp)
  10018a:	09 d3                	or     %edx,%ebx
  10018c:	89 5d c4             	mov    %ebx,-0x3c(%ebp)
  10018f:	8b 45 08             	mov    0x8(%ebp),%eax
  100192:	8b 5d c0             	mov    -0x40(%ebp),%ebx
  100195:	8b 75 c4             	mov    -0x3c(%ebp),%esi
  100198:	89 9c c7 e0 1c 00 00 	mov    %ebx,0x1ce0(%edi,%eax,8)
  10019f:	89 b4 c7 e4 1c 00 00 	mov    %esi,0x1ce4(%edi,%eax,8)
  1001a6:	8b 45 08             	mov    0x8(%ebp),%eax
  1001a9:	8b 8c c7 e0 1c 00 00 	mov    0x1ce0(%edi,%eax,8),%ecx
  1001b0:	8b 9c c7 e4 1c 00 00 	mov    0x1ce4(%edi,%eax,8),%ebx
  1001b7:	8b 45 14             	mov    0x14(%ebp),%eax
  1001ba:	c1 f8 08             	sar    $0x8,%eax
  1001bd:	99                   	cltd   
  1001be:	89 c2                	mov    %eax,%edx
  1001c0:	b8 00 00 00 00       	mov    $0x0,%eax
  1001c5:	c1 e2 14             	shl    $0x14,%edx
  1001c8:	89 c6                	mov    %eax,%esi
  1001ca:	83 e6 00             	and    $0x0,%esi
  1001cd:	89 75 b8             	mov    %esi,-0x48(%ebp)
  1001d0:	89 d0                	mov    %edx,%eax
  1001d2:	25 00 00 f0 0f       	and    $0xff00000,%eax
  1001d7:	89 45 bc             	mov    %eax,-0x44(%ebp)
  1001da:	8b 45 b8             	mov    -0x48(%ebp),%eax
  1001dd:	8b 55 bc             	mov    -0x44(%ebp),%edx
  1001e0:	89 c6                	mov    %eax,%esi
  1001e2:	09 ce                	or     %ecx,%esi
  1001e4:	89 75 b0             	mov    %esi,-0x50(%ebp)
  1001e7:	89 d9                	mov    %ebx,%ecx
  1001e9:	09 d1                	or     %edx,%ecx
  1001eb:	89 4d b4             	mov    %ecx,-0x4c(%ebp)
  1001ee:	8b 45 08             	mov    0x8(%ebp),%eax
  1001f1:	8b 5d b0             	mov    -0x50(%ebp),%ebx
  1001f4:	8b 75 b4             	mov    -0x4c(%ebp),%esi
  1001f7:	89 9c c7 e0 1c 00 00 	mov    %ebx,0x1ce0(%edi,%eax,8)
  1001fe:	89 b4 c7 e4 1c 00 00 	mov    %esi,0x1ce4(%edi,%eax,8)
  100205:	8b 45 08             	mov    0x8(%ebp),%eax
  100208:	8b 8c c7 e0 1c 00 00 	mov    0x1ce0(%edi,%eax,8),%ecx
  10020f:	8b 9c c7 e4 1c 00 00 	mov    0x1ce4(%edi,%eax,8),%ebx
  100216:	8b 45 0c             	mov    0xc(%ebp),%eax
  100219:	c1 e8 18             	shr    $0x18,%eax
  10021c:	ba 00 00 00 00       	mov    $0x0,%edx
  100221:	89 c2                	mov    %eax,%edx
  100223:	b8 00 00 00 00       	mov    $0x0,%eax
  100228:	c1 e2 18             	shl    $0x18,%edx
  10022b:	89 ce                	mov    %ecx,%esi
  10022d:	09 c6                	or     %eax,%esi
  10022f:	89 75 a8             	mov    %esi,-0x58(%ebp)
  100232:	09 d3                	or     %edx,%ebx
  100234:	89 5d ac             	mov    %ebx,-0x54(%ebp)
  100237:	8b 45 08             	mov    0x8(%ebp),%eax
  10023a:	8b 5d a8             	mov    -0x58(%ebp),%ebx
  10023d:	8b 75 ac             	mov    -0x54(%ebp),%esi
  100240:	89 9c c7 e0 1c 00 00 	mov    %ebx,0x1ce0(%edi,%eax,8)
  100247:	89 b4 c7 e4 1c 00 00 	mov    %esi,0x1ce4(%edi,%eax,8)
  10024e:	90                   	nop
  10024f:	83 c4 4c             	add    $0x4c,%esp
  100252:	5b                   	pop    %ebx
  100253:	5e                   	pop    %esi
  100254:	5f                   	pop    %edi
  100255:	5d                   	pop    %ebp
  100256:	c3                   	ret    

00100257 <init_gdt>:
  100257:	55                   	push   %ebp
  100258:	89 e5                	mov    %esp,%ebp
  10025a:	53                   	push   %ebx
  10025b:	83 ec 04             	sub    $0x4,%esp
  10025e:	e8 5a 36 00 00       	call   1038bd <__x86.get_pc_thunk.bx>
  100263:	81 c3 bd 40 00 00    	add    $0x40bd,%ebx
  100269:	6a 00                	push   $0x0
  10026b:	6a 00                	push   $0x0
  10026d:	6a 00                	push   $0x0
  10026f:	6a 00                	push   $0x0
  100271:	e8 da fd ff ff       	call   100050 <set_gdt_entry>
  100276:	83 c4 10             	add    $0x10,%esp
  100279:	68 9a 0c 00 00       	push   $0xc9a
  10027e:	68 ff ff 0f 00       	push   $0xfffff
  100283:	6a 00                	push   $0x0
  100285:	6a 01                	push   $0x1
  100287:	e8 c4 fd ff ff       	call   100050 <set_gdt_entry>
  10028c:	83 c4 10             	add    $0x10,%esp
  10028f:	68 92 0c 00 00       	push   $0xc92
  100294:	68 ff ff 0f 00       	push   $0xfffff
  100299:	6a 00                	push   $0x0
  10029b:	6a 02                	push   $0x2
  10029d:	e8 ae fd ff ff       	call   100050 <set_gdt_entry>
  1002a2:	83 c4 10             	add    $0x10,%esp
  1002a5:	68 fa 0c 00 00       	push   $0xcfa
  1002aa:	68 ff ff 0f 00       	push   $0xfffff
  1002af:	6a 00                	push   $0x0
  1002b1:	6a 03                	push   $0x3
  1002b3:	e8 98 fd ff ff       	call   100050 <set_gdt_entry>
  1002b8:	83 c4 10             	add    $0x10,%esp
  1002bb:	68 f2 0c 00 00       	push   $0xcf2
  1002c0:	68 ff ff 0f 00       	push   $0xfffff
  1002c5:	6a 00                	push   $0x0
  1002c7:	6a 04                	push   $0x4
  1002c9:	e8 82 fd ff ff       	call   100050 <set_gdt_entry>
  1002ce:	83 c4 10             	add    $0x10,%esp
  1002d1:	8d 83 e0 fc ff ff    	lea    -0x320(%ebx),%eax
  1002d7:	68 e9 00 00 00       	push   $0xe9
  1002dc:	68 80 00 00 00       	push   $0x80
  1002e1:	50                   	push   %eax
  1002e2:	6a 05                	push   $0x5
  1002e4:	e8 67 fd ff ff       	call   100050 <set_gdt_entry>
  1002e9:	83 c4 10             	add    $0x10,%esp
  1002ec:	0f 01 93 0c 00 00 00 	lgdtl  0xc(%ebx)
  1002f3:	66 b8 10 00          	mov    $0x10,%ax
  1002f7:	8e d8                	mov    %eax,%ds
  1002f9:	8e c0                	mov    %eax,%es
  1002fb:	8e e0                	mov    %eax,%fs
  1002fd:	8e e8                	mov    %eax,%gs
  1002ff:	8e d0                	mov    %eax,%ss
  100301:	b8 28 00 00 00       	mov    $0x28,%eax
  100306:	0f 00 d8             	ltr    %ax
  100309:	90                   	nop
  10030a:	8b 5d fc             	mov    -0x4(%ebp),%ebx
  10030d:	c9                   	leave  
  10030e:	c3                   	ret    

0010030f <set_idt_entry>:
  10030f:	55                   	push   %ebp
  100310:	89 e5                	mov    %esp,%ebp
  100312:	57                   	push   %edi
  100313:	56                   	push   %esi
  100314:	53                   	push   %ebx
  100315:	83 ec 04             	sub    $0x4,%esp
  100318:	e8 a4 35 00 00       	call   1038c1 <__x86.get_pc_thunk.ax>
  10031d:	05 03 40 00 00       	add    $0x4003,%eax
  100322:	c7 c2 80 80 12 00    	mov    $0x128080,%edx
  100328:	8b 4d 08             	mov    0x8(%ebp),%ecx
  10032b:	0f b6 5c ca 04       	movzbl 0x4(%edx,%ecx,8),%ebx
  100330:	83 e3 f8             	and    $0xfffffff8,%ebx
  100333:	88 5c ca 04          	mov    %bl,0x4(%edx,%ecx,8)
  100337:	c7 c2 80 80 12 00    	mov    $0x128080,%edx
  10033d:	8b 4d 08             	mov    0x8(%ebp),%ecx
  100340:	0f b6 5c ca 04       	movzbl 0x4(%edx,%ecx,8),%ebx
  100345:	83 e3 07             	and    $0x7,%ebx
  100348:	88 5c ca 04          	mov    %bl,0x4(%edx,%ecx,8)
  10034c:	c7 c2 80 80 12 00    	mov    $0x128080,%edx
  100352:	8b 4d 08             	mov    0x8(%ebp),%ecx
  100355:	0f b6 5c ca 05       	movzbl 0x5(%edx,%ecx,8),%ebx
  10035a:	83 e3 ef             	and    $0xffffffef,%ebx
  10035d:	88 5c ca 05          	mov    %bl,0x5(%edx,%ecx,8)
  100361:	8b 55 0c             	mov    0xc(%ebp),%edx
  100364:	89 d3                	mov    %edx,%ebx
  100366:	c7 c2 80 80 12 00    	mov    $0x128080,%edx
  10036c:	8b 4d 08             	mov    0x8(%ebp),%ecx
  10036f:	66 89 5d f2          	mov    %bx,-0xe(%ebp)
  100373:	0f b7 db             	movzwl %bx,%ebx
  100376:	0f b6 f3             	movzbl %bl,%esi
  100379:	0f b6 1c ca          	movzbl (%edx,%ecx,8),%ebx
  10037d:	83 e3 00             	and    $0x0,%ebx
  100380:	89 df                	mov    %ebx,%edi
  100382:	09 f7                	or     %esi,%edi
  100384:	89 fb                	mov    %edi,%ebx
  100386:	88 1c ca             	mov    %bl,(%edx,%ecx,8)
  100389:	0f b7 5d f2          	movzwl -0xe(%ebp),%ebx
  10038d:	66 c1 eb 08          	shr    $0x8,%bx
  100391:	0f b7 f3             	movzwl %bx,%esi
  100394:	0f b6 5c ca 01       	movzbl 0x1(%edx,%ecx,8),%ebx
  100399:	83 e3 00             	and    $0x0,%ebx
  10039c:	09 f3                	or     %esi,%ebx
  10039e:	88 5c ca 01          	mov    %bl,0x1(%edx,%ecx,8)
  1003a2:	8b 55 0c             	mov    0xc(%ebp),%edx
  1003a5:	c1 ea 10             	shr    $0x10,%edx
  1003a8:	89 d3                	mov    %edx,%ebx
  1003aa:	c7 c2 80 80 12 00    	mov    $0x128080,%edx
  1003b0:	8b 4d 08             	mov    0x8(%ebp),%ecx
  1003b3:	66 89 5d f2          	mov    %bx,-0xe(%ebp)
  1003b7:	0f b7 db             	movzwl %bx,%ebx
  1003ba:	0f b6 f3             	movzbl %bl,%esi
  1003bd:	0f b6 5c ca 06       	movzbl 0x6(%edx,%ecx,8),%ebx
  1003c2:	83 e3 00             	and    $0x0,%ebx
  1003c5:	89 df                	mov    %ebx,%edi
  1003c7:	09 f7                	or     %esi,%edi
  1003c9:	89 fb                	mov    %edi,%ebx
  1003cb:	88 5c ca 06          	mov    %bl,0x6(%edx,%ecx,8)
  1003cf:	0f b7 5d f2          	movzwl -0xe(%ebp),%ebx
  1003d3:	66 c1 eb 08          	shr    $0x8,%bx
  1003d7:	0f b7 f3             	movzwl %bx,%esi
  1003da:	0f b6 5c ca 07       	movzbl 0x7(%edx,%ecx,8),%ebx
  1003df:	83 e3 00             	and    $0x0,%ebx
  1003e2:	09 f3                	or     %esi,%ebx
  1003e4:	88 5c ca 07          	mov    %bl,0x7(%edx,%ecx,8)
  1003e8:	8b 55 10             	mov    0x10(%ebp),%edx
  1003eb:	89 d3                	mov    %edx,%ebx
  1003ed:	c7 c2 80 80 12 00    	mov    $0x128080,%edx
  1003f3:	8b 4d 08             	mov    0x8(%ebp),%ecx
  1003f6:	66 89 5d f2          	mov    %bx,-0xe(%ebp)
  1003fa:	0f b7 db             	movzwl %bx,%ebx
  1003fd:	0f b6 f3             	movzbl %bl,%esi
  100400:	0f b6 5c ca 02       	movzbl 0x2(%edx,%ecx,8),%ebx
  100405:	83 e3 00             	and    $0x0,%ebx
  100408:	89 df                	mov    %ebx,%edi
  10040a:	09 f7                	or     %esi,%edi
  10040c:	89 fb                	mov    %edi,%ebx
  10040e:	88 5c ca 02          	mov    %bl,0x2(%edx,%ecx,8)
  100412:	0f b7 5d f2          	movzwl -0xe(%ebp),%ebx
  100416:	66 c1 eb 08          	shr    $0x8,%bx
  10041a:	0f b7 f3             	movzwl %bx,%esi
  10041d:	0f b6 5c ca 03       	movzbl 0x3(%edx,%ecx,8),%ebx
  100422:	83 e3 00             	and    $0x0,%ebx
  100425:	09 f3                	or     %esi,%ebx
  100427:	88 5c ca 03          	mov    %bl,0x3(%edx,%ecx,8)
  10042b:	8b 55 14             	mov    0x14(%ebp),%edx
  10042e:	83 e2 07             	and    $0x7,%edx
  100431:	c7 c1 80 80 12 00    	mov    $0x128080,%ecx
  100437:	8b 5d 08             	mov    0x8(%ebp),%ebx
  10043a:	89 d6                	mov    %edx,%esi
  10043c:	83 e6 07             	and    $0x7,%esi
  10043f:	0f b6 54 d9 05       	movzbl 0x5(%ecx,%ebx,8),%edx
  100444:	83 e2 f8             	and    $0xfffffff8,%edx
  100447:	09 f2                	or     %esi,%edx
  100449:	88 54 d9 05          	mov    %dl,0x5(%ecx,%ebx,8)
  10044d:	8b 55 18             	mov    0x18(%ebp),%edx
  100450:	83 e2 01             	and    $0x1,%edx
  100453:	c7 c1 80 80 12 00    	mov    $0x128080,%ecx
  100459:	8b 5d 08             	mov    0x8(%ebp),%ebx
  10045c:	83 e2 01             	and    $0x1,%edx
  10045f:	8d 34 d5 00 00 00 00 	lea    0x0(,%edx,8),%esi
  100466:	0f b6 54 d9 05       	movzbl 0x5(%ecx,%ebx,8),%edx
  10046b:	83 e2 f7             	and    $0xfffffff7,%edx
  10046e:	09 f2                	or     %esi,%edx
  100470:	88 54 d9 05          	mov    %dl,0x5(%ecx,%ebx,8)
  100474:	8b 55 1c             	mov    0x1c(%ebp),%edx
  100477:	83 e2 03             	and    $0x3,%edx
  10047a:	c7 c1 80 80 12 00    	mov    $0x128080,%ecx
  100480:	8b 5d 08             	mov    0x8(%ebp),%ebx
  100483:	83 e2 03             	and    $0x3,%edx
  100486:	89 d6                	mov    %edx,%esi
  100488:	c1 e6 05             	shl    $0x5,%esi
  10048b:	0f b6 54 d9 05       	movzbl 0x5(%ecx,%ebx,8),%edx
  100490:	83 e2 9f             	and    $0xffffff9f,%edx
  100493:	09 f2                	or     %esi,%edx
  100495:	88 54 d9 05          	mov    %dl,0x5(%ecx,%ebx,8)
  100499:	8b 55 20             	mov    0x20(%ebp),%edx
  10049c:	83 e2 01             	and    $0x1,%edx
  10049f:	c7 c0 80 80 12 00    	mov    $0x128080,%eax
  1004a5:	8b 4d 08             	mov    0x8(%ebp),%ecx
  1004a8:	89 d3                	mov    %edx,%ebx
  1004aa:	c1 e3 07             	shl    $0x7,%ebx
  1004ad:	0f b6 54 c8 05       	movzbl 0x5(%eax,%ecx,8),%edx
  1004b2:	83 e2 7f             	and    $0x7f,%edx
  1004b5:	09 da                	or     %ebx,%edx
  1004b7:	88 54 c8 05          	mov    %dl,0x5(%eax,%ecx,8)
  1004bb:	90                   	nop
  1004bc:	83 c4 04             	add    $0x4,%esp
  1004bf:	5b                   	pop    %ebx
  1004c0:	5e                   	pop    %esi
  1004c1:	5f                   	pop    %edi
  1004c2:	5d                   	pop    %ebp
  1004c3:	c3                   	ret    

001004c4 <init_pic>:
  1004c4:	55                   	push   %ebp
  1004c5:	89 e5                	mov    %esp,%ebp
  1004c7:	83 ec 08             	sub    $0x8,%esp
  1004ca:	e8 f2 33 00 00       	call   1038c1 <__x86.get_pc_thunk.ax>
  1004cf:	05 51 3e 00 00       	add    $0x3e51,%eax
  1004d4:	83 ec 08             	sub    $0x8,%esp
  1004d7:	6a 11                	push   $0x11
  1004d9:	6a 20                	push   $0x20
  1004db:	e8 d0 06 00 00       	call   100bb0 <outb>
  1004e0:	83 c4 10             	add    $0x10,%esp
  1004e3:	83 ec 08             	sub    $0x8,%esp
  1004e6:	6a 20                	push   $0x20
  1004e8:	6a 21                	push   $0x21
  1004ea:	e8 c1 06 00 00       	call   100bb0 <outb>
  1004ef:	83 c4 10             	add    $0x10,%esp
  1004f2:	83 ec 08             	sub    $0x8,%esp
  1004f5:	6a 04                	push   $0x4
  1004f7:	6a 21                	push   $0x21
  1004f9:	e8 b2 06 00 00       	call   100bb0 <outb>
  1004fe:	83 c4 10             	add    $0x10,%esp
  100501:	83 ec 08             	sub    $0x8,%esp
  100504:	6a 01                	push   $0x1
  100506:	6a 21                	push   $0x21
  100508:	e8 a3 06 00 00       	call   100bb0 <outb>
  10050d:	83 c4 10             	add    $0x10,%esp
  100510:	83 ec 08             	sub    $0x8,%esp
  100513:	6a 11                	push   $0x11
  100515:	68 a0 00 00 00       	push   $0xa0
  10051a:	e8 91 06 00 00       	call   100bb0 <outb>
  10051f:	83 c4 10             	add    $0x10,%esp
  100522:	83 ec 08             	sub    $0x8,%esp
  100525:	6a 28                	push   $0x28
  100527:	68 a1 00 00 00       	push   $0xa1
  10052c:	e8 7f 06 00 00       	call   100bb0 <outb>
  100531:	83 c4 10             	add    $0x10,%esp
  100534:	83 ec 08             	sub    $0x8,%esp
  100537:	6a 02                	push   $0x2
  100539:	68 a1 00 00 00       	push   $0xa1
  10053e:	e8 6d 06 00 00       	call   100bb0 <outb>
  100543:	83 c4 10             	add    $0x10,%esp
  100546:	83 ec 08             	sub    $0x8,%esp
  100549:	6a 01                	push   $0x1
  10054b:	68 a1 00 00 00       	push   $0xa1
  100550:	e8 5b 06 00 00       	call   100bb0 <outb>
  100555:	83 c4 10             	add    $0x10,%esp
  100558:	83 ec 08             	sub    $0x8,%esp
  10055b:	6a 00                	push   $0x0
  10055d:	6a 20                	push   $0x20
  10055f:	e8 4c 06 00 00       	call   100bb0 <outb>
  100564:	83 c4 10             	add    $0x10,%esp
  100567:	83 ec 08             	sub    $0x8,%esp
  10056a:	6a 00                	push   $0x0
  10056c:	68 a0 00 00 00       	push   $0xa0
  100571:	e8 3a 06 00 00       	call   100bb0 <outb>
  100576:	83 c4 10             	add    $0x10,%esp
  100579:	90                   	nop
  10057a:	c9                   	leave  
  10057b:	c3                   	ret    

0010057c <init_idt>:
  10057c:	55                   	push   %ebp
  10057d:	89 e5                	mov    %esp,%ebp
  10057f:	53                   	push   %ebx
  100580:	83 ec 04             	sub    $0x4,%esp
  100583:	e8 35 33 00 00       	call   1038bd <__x86.get_pc_thunk.bx>
  100588:	81 c3 98 3d 00 00    	add    $0x3d98,%ebx
  10058e:	e8 31 ff ff ff       	call   1004c4 <init_pic>
  100593:	c7 c0 47 11 10 00    	mov    $0x101147,%eax
  100599:	83 ec 04             	sub    $0x4,%esp
  10059c:	6a 01                	push   $0x1
  10059e:	6a 00                	push   $0x0
  1005a0:	6a 01                	push   $0x1
  1005a2:	6a 06                	push   $0x6
  1005a4:	6a 08                	push   $0x8
  1005a6:	50                   	push   %eax
  1005a7:	6a 00                	push   $0x0
  1005a9:	e8 61 fd ff ff       	call   10030f <set_idt_entry>
  1005ae:	83 c4 20             	add    $0x20,%esp
  1005b1:	c7 c0 50 11 10 00    	mov    $0x101150,%eax
  1005b7:	83 ec 04             	sub    $0x4,%esp
  1005ba:	6a 01                	push   $0x1
  1005bc:	6a 00                	push   $0x0
  1005be:	6a 01                	push   $0x1
  1005c0:	6a 06                	push   $0x6
  1005c2:	6a 08                	push   $0x8
  1005c4:	50                   	push   %eax
  1005c5:	6a 01                	push   $0x1
  1005c7:	e8 43 fd ff ff       	call   10030f <set_idt_entry>
  1005cc:	83 c4 20             	add    $0x20,%esp
  1005cf:	c7 c0 59 11 10 00    	mov    $0x101159,%eax
  1005d5:	83 ec 04             	sub    $0x4,%esp
  1005d8:	6a 01                	push   $0x1
  1005da:	6a 00                	push   $0x0
  1005dc:	6a 01                	push   $0x1
  1005de:	6a 06                	push   $0x6
  1005e0:	6a 08                	push   $0x8
  1005e2:	50                   	push   %eax
  1005e3:	6a 02                	push   $0x2
  1005e5:	e8 25 fd ff ff       	call   10030f <set_idt_entry>
  1005ea:	83 c4 20             	add    $0x20,%esp
  1005ed:	c7 c0 62 11 10 00    	mov    $0x101162,%eax
  1005f3:	83 ec 04             	sub    $0x4,%esp
  1005f6:	6a 01                	push   $0x1
  1005f8:	6a 00                	push   $0x0
  1005fa:	6a 01                	push   $0x1
  1005fc:	6a 06                	push   $0x6
  1005fe:	6a 08                	push   $0x8
  100600:	50                   	push   %eax
  100601:	6a 03                	push   $0x3
  100603:	e8 07 fd ff ff       	call   10030f <set_idt_entry>
  100608:	83 c4 20             	add    $0x20,%esp
  10060b:	c7 c0 6b 11 10 00    	mov    $0x10116b,%eax
  100611:	83 ec 04             	sub    $0x4,%esp
  100614:	6a 01                	push   $0x1
  100616:	6a 00                	push   $0x0
  100618:	6a 01                	push   $0x1
  10061a:	6a 06                	push   $0x6
  10061c:	6a 08                	push   $0x8
  10061e:	50                   	push   %eax
  10061f:	6a 04                	push   $0x4
  100621:	e8 e9 fc ff ff       	call   10030f <set_idt_entry>
  100626:	83 c4 20             	add    $0x20,%esp
  100629:	c7 c0 74 11 10 00    	mov    $0x101174,%eax
  10062f:	83 ec 04             	sub    $0x4,%esp
  100632:	6a 01                	push   $0x1
  100634:	6a 00                	push   $0x0
  100636:	6a 01                	push   $0x1
  100638:	6a 06                	push   $0x6
  10063a:	6a 08                	push   $0x8
  10063c:	50                   	push   %eax
  10063d:	6a 05                	push   $0x5
  10063f:	e8 cb fc ff ff       	call   10030f <set_idt_entry>
  100644:	83 c4 20             	add    $0x20,%esp
  100647:	c7 c0 7d 11 10 00    	mov    $0x10117d,%eax
  10064d:	83 ec 04             	sub    $0x4,%esp
  100650:	6a 01                	push   $0x1
  100652:	6a 00                	push   $0x0
  100654:	6a 01                	push   $0x1
  100656:	6a 06                	push   $0x6
  100658:	6a 08                	push   $0x8
  10065a:	50                   	push   %eax
  10065b:	6a 06                	push   $0x6
  10065d:	e8 ad fc ff ff       	call   10030f <set_idt_entry>
  100662:	83 c4 20             	add    $0x20,%esp
  100665:	c7 c0 86 11 10 00    	mov    $0x101186,%eax
  10066b:	83 ec 04             	sub    $0x4,%esp
  10066e:	6a 01                	push   $0x1
  100670:	6a 00                	push   $0x0
  100672:	6a 01                	push   $0x1
  100674:	6a 06                	push   $0x6
  100676:	6a 08                	push   $0x8
  100678:	50                   	push   %eax
  100679:	6a 07                	push   $0x7
  10067b:	e8 8f fc ff ff       	call   10030f <set_idt_entry>
  100680:	83 c4 20             	add    $0x20,%esp
  100683:	c7 c0 8f 11 10 00    	mov    $0x10118f,%eax
  100689:	83 ec 04             	sub    $0x4,%esp
  10068c:	6a 01                	push   $0x1
  10068e:	6a 00                	push   $0x0
  100690:	6a 01                	push   $0x1
  100692:	6a 06                	push   $0x6
  100694:	6a 08                	push   $0x8
  100696:	50                   	push   %eax
  100697:	6a 08                	push   $0x8
  100699:	e8 71 fc ff ff       	call   10030f <set_idt_entry>
  10069e:	83 c4 20             	add    $0x20,%esp
  1006a1:	c7 c0 96 11 10 00    	mov    $0x101196,%eax
  1006a7:	83 ec 04             	sub    $0x4,%esp
  1006aa:	6a 01                	push   $0x1
  1006ac:	6a 00                	push   $0x0
  1006ae:	6a 01                	push   $0x1
  1006b0:	6a 06                	push   $0x6
  1006b2:	6a 08                	push   $0x8
  1006b4:	50                   	push   %eax
  1006b5:	6a 09                	push   $0x9
  1006b7:	e8 53 fc ff ff       	call   10030f <set_idt_entry>
  1006bc:	83 c4 20             	add    $0x20,%esp
  1006bf:	c7 c0 9f 11 10 00    	mov    $0x10119f,%eax
  1006c5:	83 ec 04             	sub    $0x4,%esp
  1006c8:	6a 01                	push   $0x1
  1006ca:	6a 00                	push   $0x0
  1006cc:	6a 01                	push   $0x1
  1006ce:	6a 06                	push   $0x6
  1006d0:	6a 08                	push   $0x8
  1006d2:	50                   	push   %eax
  1006d3:	6a 0a                	push   $0xa
  1006d5:	e8 35 fc ff ff       	call   10030f <set_idt_entry>
  1006da:	83 c4 20             	add    $0x20,%esp
  1006dd:	c7 c0 a6 11 10 00    	mov    $0x1011a6,%eax
  1006e3:	83 ec 04             	sub    $0x4,%esp
  1006e6:	6a 01                	push   $0x1
  1006e8:	6a 00                	push   $0x0
  1006ea:	6a 01                	push   $0x1
  1006ec:	6a 06                	push   $0x6
  1006ee:	6a 08                	push   $0x8
  1006f0:	50                   	push   %eax
  1006f1:	6a 0b                	push   $0xb
  1006f3:	e8 17 fc ff ff       	call   10030f <set_idt_entry>
  1006f8:	83 c4 20             	add    $0x20,%esp
  1006fb:	c7 c0 ad 11 10 00    	mov    $0x1011ad,%eax
  100701:	83 ec 04             	sub    $0x4,%esp
  100704:	6a 01                	push   $0x1
  100706:	6a 00                	push   $0x0
  100708:	6a 01                	push   $0x1
  10070a:	6a 06                	push   $0x6
  10070c:	6a 08                	push   $0x8
  10070e:	50                   	push   %eax
  10070f:	6a 0c                	push   $0xc
  100711:	e8 f9 fb ff ff       	call   10030f <set_idt_entry>
  100716:	83 c4 20             	add    $0x20,%esp
  100719:	c7 c0 b4 11 10 00    	mov    $0x1011b4,%eax
  10071f:	83 ec 04             	sub    $0x4,%esp
  100722:	6a 01                	push   $0x1
  100724:	6a 00                	push   $0x0
  100726:	6a 01                	push   $0x1
  100728:	6a 06                	push   $0x6
  10072a:	6a 08                	push   $0x8
  10072c:	50                   	push   %eax
  10072d:	6a 0d                	push   $0xd
  10072f:	e8 db fb ff ff       	call   10030f <set_idt_entry>
  100734:	83 c4 20             	add    $0x20,%esp
  100737:	c7 c0 bb 11 10 00    	mov    $0x1011bb,%eax
  10073d:	83 ec 04             	sub    $0x4,%esp
  100740:	6a 01                	push   $0x1
  100742:	6a 00                	push   $0x0
  100744:	6a 01                	push   $0x1
  100746:	6a 06                	push   $0x6
  100748:	6a 08                	push   $0x8
  10074a:	50                   	push   %eax
  10074b:	6a 0e                	push   $0xe
  10074d:	e8 bd fb ff ff       	call   10030f <set_idt_entry>
  100752:	83 c4 20             	add    $0x20,%esp
  100755:	c7 c0 bf 11 10 00    	mov    $0x1011bf,%eax
  10075b:	83 ec 04             	sub    $0x4,%esp
  10075e:	6a 01                	push   $0x1
  100760:	6a 00                	push   $0x0
  100762:	6a 01                	push   $0x1
  100764:	6a 06                	push   $0x6
  100766:	6a 08                	push   $0x8
  100768:	50                   	push   %eax
  100769:	6a 0f                	push   $0xf
  10076b:	e8 9f fb ff ff       	call   10030f <set_idt_entry>
  100770:	83 c4 20             	add    $0x20,%esp
  100773:	c7 c0 c5 11 10 00    	mov    $0x1011c5,%eax
  100779:	83 ec 04             	sub    $0x4,%esp
  10077c:	6a 01                	push   $0x1
  10077e:	6a 00                	push   $0x0
  100780:	6a 01                	push   $0x1
  100782:	6a 06                	push   $0x6
  100784:	6a 08                	push   $0x8
  100786:	50                   	push   %eax
  100787:	6a 10                	push   $0x10
  100789:	e8 81 fb ff ff       	call   10030f <set_idt_entry>
  10078e:	83 c4 20             	add    $0x20,%esp
  100791:	c7 c0 cb 11 10 00    	mov    $0x1011cb,%eax
  100797:	83 ec 04             	sub    $0x4,%esp
  10079a:	6a 01                	push   $0x1
  10079c:	6a 00                	push   $0x0
  10079e:	6a 01                	push   $0x1
  1007a0:	6a 06                	push   $0x6
  1007a2:	6a 08                	push   $0x8
  1007a4:	50                   	push   %eax
  1007a5:	6a 11                	push   $0x11
  1007a7:	e8 63 fb ff ff       	call   10030f <set_idt_entry>
  1007ac:	83 c4 20             	add    $0x20,%esp
  1007af:	c7 c0 cf 11 10 00    	mov    $0x1011cf,%eax
  1007b5:	83 ec 04             	sub    $0x4,%esp
  1007b8:	6a 01                	push   $0x1
  1007ba:	6a 00                	push   $0x0
  1007bc:	6a 01                	push   $0x1
  1007be:	6a 06                	push   $0x6
  1007c0:	6a 08                	push   $0x8
  1007c2:	50                   	push   %eax
  1007c3:	6a 12                	push   $0x12
  1007c5:	e8 45 fb ff ff       	call   10030f <set_idt_entry>
  1007ca:	83 c4 20             	add    $0x20,%esp
  1007cd:	c7 c0 d5 11 10 00    	mov    $0x1011d5,%eax
  1007d3:	83 ec 04             	sub    $0x4,%esp
  1007d6:	6a 01                	push   $0x1
  1007d8:	6a 00                	push   $0x0
  1007da:	6a 01                	push   $0x1
  1007dc:	6a 06                	push   $0x6
  1007de:	6a 08                	push   $0x8
  1007e0:	50                   	push   %eax
  1007e1:	6a 20                	push   $0x20
  1007e3:	e8 27 fb ff ff       	call   10030f <set_idt_entry>
  1007e8:	83 c4 20             	add    $0x20,%esp
  1007eb:	c7 c0 db 11 10 00    	mov    $0x1011db,%eax
  1007f1:	83 ec 04             	sub    $0x4,%esp
  1007f4:	6a 01                	push   $0x1
  1007f6:	6a 00                	push   $0x0
  1007f8:	6a 01                	push   $0x1
  1007fa:	6a 06                	push   $0x6
  1007fc:	6a 08                	push   $0x8
  1007fe:	50                   	push   %eax
  1007ff:	6a 21                	push   $0x21
  100801:	e8 09 fb ff ff       	call   10030f <set_idt_entry>
  100806:	83 c4 20             	add    $0x20,%esp
  100809:	c7 c0 e1 11 10 00    	mov    $0x1011e1,%eax
  10080f:	83 ec 04             	sub    $0x4,%esp
  100812:	6a 01                	push   $0x1
  100814:	6a 00                	push   $0x0
  100816:	6a 01                	push   $0x1
  100818:	6a 06                	push   $0x6
  10081a:	6a 08                	push   $0x8
  10081c:	50                   	push   %eax
  10081d:	6a 22                	push   $0x22
  10081f:	e8 eb fa ff ff       	call   10030f <set_idt_entry>
  100824:	83 c4 20             	add    $0x20,%esp
  100827:	c7 c0 e7 11 10 00    	mov    $0x1011e7,%eax
  10082d:	83 ec 04             	sub    $0x4,%esp
  100830:	6a 01                	push   $0x1
  100832:	6a 00                	push   $0x0
  100834:	6a 01                	push   $0x1
  100836:	6a 06                	push   $0x6
  100838:	6a 08                	push   $0x8
  10083a:	50                   	push   %eax
  10083b:	6a 23                	push   $0x23
  10083d:	e8 cd fa ff ff       	call   10030f <set_idt_entry>
  100842:	83 c4 20             	add    $0x20,%esp
  100845:	c7 c0 ed 11 10 00    	mov    $0x1011ed,%eax
  10084b:	83 ec 04             	sub    $0x4,%esp
  10084e:	6a 01                	push   $0x1
  100850:	6a 00                	push   $0x0
  100852:	6a 01                	push   $0x1
  100854:	6a 06                	push   $0x6
  100856:	6a 08                	push   $0x8
  100858:	50                   	push   %eax
  100859:	6a 24                	push   $0x24
  10085b:	e8 af fa ff ff       	call   10030f <set_idt_entry>
  100860:	83 c4 20             	add    $0x20,%esp
  100863:	c7 c0 f3 11 10 00    	mov    $0x1011f3,%eax
  100869:	83 ec 04             	sub    $0x4,%esp
  10086c:	6a 01                	push   $0x1
  10086e:	6a 00                	push   $0x0
  100870:	6a 01                	push   $0x1
  100872:	6a 06                	push   $0x6
  100874:	6a 08                	push   $0x8
  100876:	50                   	push   %eax
  100877:	6a 25                	push   $0x25
  100879:	e8 91 fa ff ff       	call   10030f <set_idt_entry>
  10087e:	83 c4 20             	add    $0x20,%esp
  100881:	c7 c0 f9 11 10 00    	mov    $0x1011f9,%eax
  100887:	83 ec 04             	sub    $0x4,%esp
  10088a:	6a 01                	push   $0x1
  10088c:	6a 00                	push   $0x0
  10088e:	6a 01                	push   $0x1
  100890:	6a 06                	push   $0x6
  100892:	6a 08                	push   $0x8
  100894:	50                   	push   %eax
  100895:	6a 26                	push   $0x26
  100897:	e8 73 fa ff ff       	call   10030f <set_idt_entry>
  10089c:	83 c4 20             	add    $0x20,%esp
  10089f:	c7 c0 ff 11 10 00    	mov    $0x1011ff,%eax
  1008a5:	83 ec 04             	sub    $0x4,%esp
  1008a8:	6a 01                	push   $0x1
  1008aa:	6a 00                	push   $0x0
  1008ac:	6a 01                	push   $0x1
  1008ae:	6a 06                	push   $0x6
  1008b0:	6a 08                	push   $0x8
  1008b2:	50                   	push   %eax
  1008b3:	6a 27                	push   $0x27
  1008b5:	e8 55 fa ff ff       	call   10030f <set_idt_entry>
  1008ba:	83 c4 20             	add    $0x20,%esp
  1008bd:	c7 c0 05 12 10 00    	mov    $0x101205,%eax
  1008c3:	83 ec 04             	sub    $0x4,%esp
  1008c6:	6a 01                	push   $0x1
  1008c8:	6a 00                	push   $0x0
  1008ca:	6a 01                	push   $0x1
  1008cc:	6a 06                	push   $0x6
  1008ce:	6a 08                	push   $0x8
  1008d0:	50                   	push   %eax
  1008d1:	6a 28                	push   $0x28
  1008d3:	e8 37 fa ff ff       	call   10030f <set_idt_entry>
  1008d8:	83 c4 20             	add    $0x20,%esp
  1008db:	c7 c0 0b 12 10 00    	mov    $0x10120b,%eax
  1008e1:	83 ec 04             	sub    $0x4,%esp
  1008e4:	6a 01                	push   $0x1
  1008e6:	6a 00                	push   $0x0
  1008e8:	6a 01                	push   $0x1
  1008ea:	6a 06                	push   $0x6
  1008ec:	6a 08                	push   $0x8
  1008ee:	50                   	push   %eax
  1008ef:	6a 29                	push   $0x29
  1008f1:	e8 19 fa ff ff       	call   10030f <set_idt_entry>
  1008f6:	83 c4 20             	add    $0x20,%esp
  1008f9:	c7 c0 11 12 10 00    	mov    $0x101211,%eax
  1008ff:	83 ec 04             	sub    $0x4,%esp
  100902:	6a 01                	push   $0x1
  100904:	6a 00                	push   $0x0
  100906:	6a 01                	push   $0x1
  100908:	6a 06                	push   $0x6
  10090a:	6a 08                	push   $0x8
  10090c:	50                   	push   %eax
  10090d:	6a 2a                	push   $0x2a
  10090f:	e8 fb f9 ff ff       	call   10030f <set_idt_entry>
  100914:	83 c4 20             	add    $0x20,%esp
  100917:	c7 c0 17 12 10 00    	mov    $0x101217,%eax
  10091d:	83 ec 04             	sub    $0x4,%esp
  100920:	6a 01                	push   $0x1
  100922:	6a 00                	push   $0x0
  100924:	6a 01                	push   $0x1
  100926:	6a 06                	push   $0x6
  100928:	6a 08                	push   $0x8
  10092a:	50                   	push   %eax
  10092b:	6a 2b                	push   $0x2b
  10092d:	e8 dd f9 ff ff       	call   10030f <set_idt_entry>
  100932:	83 c4 20             	add    $0x20,%esp
  100935:	c7 c0 1d 12 10 00    	mov    $0x10121d,%eax
  10093b:	83 ec 04             	sub    $0x4,%esp
  10093e:	6a 01                	push   $0x1
  100940:	6a 00                	push   $0x0
  100942:	6a 01                	push   $0x1
  100944:	6a 06                	push   $0x6
  100946:	6a 08                	push   $0x8
  100948:	50                   	push   %eax
  100949:	6a 2c                	push   $0x2c
  10094b:	e8 bf f9 ff ff       	call   10030f <set_idt_entry>
  100950:	83 c4 20             	add    $0x20,%esp
  100953:	c7 c0 23 12 10 00    	mov    $0x101223,%eax
  100959:	83 ec 04             	sub    $0x4,%esp
  10095c:	6a 01                	push   $0x1
  10095e:	6a 00                	push   $0x0
  100960:	6a 01                	push   $0x1
  100962:	6a 06                	push   $0x6
  100964:	6a 08                	push   $0x8
  100966:	50                   	push   %eax
  100967:	6a 2d                	push   $0x2d
  100969:	e8 a1 f9 ff ff       	call   10030f <set_idt_entry>
  10096e:	83 c4 20             	add    $0x20,%esp
  100971:	c7 c0 29 12 10 00    	mov    $0x101229,%eax
  100977:	83 ec 04             	sub    $0x4,%esp
  10097a:	6a 01                	push   $0x1
  10097c:	6a 00                	push   $0x0
  10097e:	6a 01                	push   $0x1
  100980:	6a 06                	push   $0x6
  100982:	6a 08                	push   $0x8
  100984:	50                   	push   %eax
  100985:	6a 2e                	push   $0x2e
  100987:	e8 83 f9 ff ff       	call   10030f <set_idt_entry>
  10098c:	83 c4 20             	add    $0x20,%esp
  10098f:	c7 c0 2f 12 10 00    	mov    $0x10122f,%eax
  100995:	83 ec 04             	sub    $0x4,%esp
  100998:	6a 01                	push   $0x1
  10099a:	6a 00                	push   $0x0
  10099c:	6a 01                	push   $0x1
  10099e:	6a 06                	push   $0x6
  1009a0:	6a 08                	push   $0x8
  1009a2:	50                   	push   %eax
  1009a3:	6a 2f                	push   $0x2f
  1009a5:	e8 65 f9 ff ff       	call   10030f <set_idt_entry>
  1009aa:	83 c4 20             	add    $0x20,%esp
  1009ad:	c7 c0 35 12 10 00    	mov    $0x101235,%eax
  1009b3:	83 ec 04             	sub    $0x4,%esp
  1009b6:	6a 01                	push   $0x1
  1009b8:	6a 03                	push   $0x3
  1009ba:	6a 01                	push   $0x1
  1009bc:	6a 06                	push   $0x6
  1009be:	6a 08                	push   $0x8
  1009c0:	50                   	push   %eax
  1009c1:	6a 30                	push   $0x30
  1009c3:	e8 47 f9 ff ff       	call   10030f <set_idt_entry>
  1009c8:	83 c4 20             	add    $0x20,%esp
  1009cb:	0f 01 9b 18 00 00 00 	lidtl  0x18(%ebx)
  1009d2:	fb                   	sti    
  1009d3:	90                   	nop
  1009d4:	8b 5d fc             	mov    -0x4(%ebp),%ebx
  1009d7:	c9                   	leave  
  1009d8:	c3                   	ret    

001009d9 <syscall>:
  1009d9:	55                   	push   %ebp
  1009da:	89 e5                	mov    %esp,%ebp
  1009dc:	53                   	push   %ebx
  1009dd:	83 ec 04             	sub    $0x4,%esp
  1009e0:	e8 dc 2e 00 00       	call   1038c1 <__x86.get_pc_thunk.ax>
  1009e5:	05 3b 39 00 00       	add    $0x393b,%eax
  1009ea:	8b 55 08             	mov    0x8(%ebp),%edx
  1009ed:	8b 12                	mov    (%edx),%edx
  1009ef:	85 d2                	test   %edx,%edx
  1009f1:	75 1c                	jne    100a0f <syscall+0x36>
  1009f3:	8b 55 08             	mov    0x8(%ebp),%edx
  1009f6:	8b 52 04             	mov    0x4(%edx),%edx
  1009f9:	83 ec 08             	sub    $0x8,%esp
  1009fc:	52                   	push   %edx
  1009fd:	8d 90 e0 0c 00 00    	lea    0xce0(%eax),%edx
  100a03:	52                   	push   %edx
  100a04:	89 c3                	mov    %eax,%ebx
  100a06:	e8 6d 20 00 00       	call   102a78 <print>
  100a0b:	83 c4 10             	add    $0x10,%esp
  100a0e:	90                   	nop
  100a0f:	8b 45 08             	mov    0x8(%ebp),%eax
  100a12:	8b 5d fc             	mov    -0x4(%ebp),%ebx
  100a15:	c9                   	leave  
  100a16:	c3                   	ret    

00100a17 <handle_interrupt>:
  100a17:	55                   	push   %ebp
  100a18:	89 e5                	mov    %esp,%ebp
  100a1a:	57                   	push   %edi
  100a1b:	56                   	push   %esi
  100a1c:	53                   	push   %ebx
  100a1d:	83 ec 3c             	sub    $0x3c,%esp
  100a20:	e8 98 2e 00 00       	call   1038bd <__x86.get_pc_thunk.bx>
  100a25:	81 c3 fb 38 00 00    	add    $0x38fb,%ebx
  100a2b:	8b 45 08             	mov    0x8(%ebp),%eax
  100a2e:	89 45 e4             	mov    %eax,-0x1c(%ebp)
  100a31:	8b 45 08             	mov    0x8(%ebp),%eax
  100a34:	8b 40 1c             	mov    0x1c(%eax),%eax
  100a37:	83 f8 1f             	cmp    $0x1f,%eax
  100a3a:	0f 87 d0 00 00 00    	ja     100b10 <handle_interrupt+0xf9>
  100a40:	8b 45 08             	mov    0x8(%ebp),%eax
  100a43:	8b 40 18             	mov    0x18(%eax),%eax
  100a46:	83 ec 0c             	sub    $0xc,%esp
  100a49:	50                   	push   %eax
  100a4a:	e8 98 20 00 00       	call   102ae7 <panic_message>
  100a4f:	83 c4 10             	add    $0x10,%esp
  100a52:	8b 45 08             	mov    0x8(%ebp),%eax
  100a55:	8b 50 20             	mov    0x20(%eax),%edx
  100a58:	8b 45 08             	mov    0x8(%ebp),%eax
  100a5b:	8b 40 1c             	mov    0x1c(%eax),%eax
  100a5e:	83 ec 04             	sub    $0x4,%esp
  100a61:	52                   	push   %edx
  100a62:	50                   	push   %eax
  100a63:	8d 83 e4 0c 00 00    	lea    0xce4(%ebx),%eax
  100a69:	50                   	push   %eax
  100a6a:	e8 8d 1f 00 00       	call   1029fc <println>
  100a6f:	83 c4 10             	add    $0x10,%esp
  100a72:	8b 45 08             	mov    0x8(%ebp),%eax
  100a75:	8b 78 2c             	mov    0x2c(%eax),%edi
  100a78:	8b 45 08             	mov    0x8(%ebp),%eax
  100a7b:	8b 40 34             	mov    0x34(%eax),%eax
  100a7e:	89 45 d4             	mov    %eax,-0x2c(%ebp)
  100a81:	8b 45 08             	mov    0x8(%ebp),%eax
  100a84:	8b 48 30             	mov    0x30(%eax),%ecx
  100a87:	89 4d d0             	mov    %ecx,-0x30(%ebp)
  100a8a:	8b 45 08             	mov    0x8(%ebp),%eax
  100a8d:	8b 70 10             	mov    0x10(%eax),%esi
  100a90:	89 75 cc             	mov    %esi,-0x34(%ebp)
  100a93:	8b 45 08             	mov    0x8(%ebp),%eax
  100a96:	8b 50 24             	mov    0x24(%eax),%edx
  100a99:	89 55 c8             	mov    %edx,-0x38(%ebp)
  100a9c:	8b 45 08             	mov    0x8(%ebp),%eax
  100a9f:	8b 40 0c             	mov    0xc(%eax),%eax
  100aa2:	89 45 c4             	mov    %eax,-0x3c(%ebp)
  100aa5:	8b 45 08             	mov    0x8(%ebp),%eax
  100aa8:	8b 48 14             	mov    0x14(%eax),%ecx
  100aab:	89 4d c0             	mov    %ecx,-0x40(%ebp)
  100aae:	8b 45 08             	mov    0x8(%ebp),%eax
  100ab1:	8b 70 08             	mov    0x8(%eax),%esi
  100ab4:	89 75 bc             	mov    %esi,-0x44(%ebp)
  100ab7:	8b 45 08             	mov    0x8(%ebp),%eax
  100aba:	8b 70 04             	mov    0x4(%eax),%esi
  100abd:	8b 45 08             	mov    0x8(%ebp),%eax
  100ac0:	8b 48 18             	mov    0x18(%eax),%ecx
  100ac3:	8b 45 08             	mov    0x8(%ebp),%eax
  100ac6:	8b 10                	mov    (%eax),%edx
  100ac8:	8b 45 08             	mov    0x8(%ebp),%eax
  100acb:	8b 40 28             	mov    0x28(%eax),%eax
  100ace:	83 ec 0c             	sub    $0xc,%esp
  100ad1:	57                   	push   %edi
  100ad2:	ff 75 d4             	pushl  -0x2c(%ebp)
  100ad5:	ff 75 d0             	pushl  -0x30(%ebp)
  100ad8:	ff 75 cc             	pushl  -0x34(%ebp)
  100adb:	ff 75 c8             	pushl  -0x38(%ebp)
  100ade:	ff 75 c4             	pushl  -0x3c(%ebp)
  100ae1:	ff 75 c0             	pushl  -0x40(%ebp)
  100ae4:	ff 75 bc             	pushl  -0x44(%ebp)
  100ae7:	56                   	push   %esi
  100ae8:	51                   	push   %ecx
  100ae9:	52                   	push   %edx
  100aea:	50                   	push   %eax
  100aeb:	8d 83 0c 0d 00 00    	lea    0xd0c(%ebx),%eax
  100af1:	50                   	push   %eax
  100af2:	e8 05 1f 00 00       	call   1029fc <println>
  100af7:	83 c4 40             	add    $0x40,%esp
  100afa:	83 ec 0c             	sub    $0xc,%esp
  100afd:	8d 83 83 0d 00 00    	lea    0xd83(%ebx),%eax
  100b03:	50                   	push   %eax
  100b04:	e8 f3 1e 00 00       	call   1029fc <println>
  100b09:	83 c4 10             	add    $0x10,%esp
  100b0c:	fa                   	cli    
  100b0d:	f4                   	hlt    
  100b0e:	eb fc                	jmp    100b0c <handle_interrupt+0xf5>
  100b10:	8b 45 08             	mov    0x8(%ebp),%eax
  100b13:	8b 40 1c             	mov    0x1c(%eax),%eax
  100b16:	83 f8 1f             	cmp    $0x1f,%eax
  100b19:	76 71                	jbe    100b8c <handle_interrupt+0x175>
  100b1b:	8b 45 08             	mov    0x8(%ebp),%eax
  100b1e:	8b 40 1c             	mov    0x1c(%eax),%eax
  100b21:	83 f8 2f             	cmp    $0x2f,%eax
  100b24:	77 66                	ja     100b8c <handle_interrupt+0x175>
  100b26:	8b 45 08             	mov    0x8(%ebp),%eax
  100b29:	8b 40 1c             	mov    0x1c(%eax),%eax
  100b2c:	83 f8 20             	cmp    $0x20,%eax
  100b2f:	75 1d                	jne    100b4e <handle_interrupt+0x137>
  100b31:	83 ec 0c             	sub    $0xc,%esp
  100b34:	ff 75 08             	pushl  0x8(%ebp)
  100b37:	e8 46 0a 00 00       	call   101582 <schedule>
  100b3c:	83 c4 10             	add    $0x10,%esp
  100b3f:	89 45 e4             	mov    %eax,-0x1c(%ebp)
  100b42:	8b 45 e4             	mov    -0x1c(%ebp),%eax
  100b45:	83 c0 38             	add    $0x38,%eax
  100b48:	89 83 e4 fc ff ff    	mov    %eax,-0x31c(%ebx)
  100b4e:	8b 45 08             	mov    0x8(%ebp),%eax
  100b51:	8b 40 1c             	mov    0x1c(%eax),%eax
  100b54:	83 f8 21             	cmp    $0x21,%eax
  100b57:	75 05                	jne    100b5e <handle_interrupt+0x147>
  100b59:	e8 b6 03 00 00       	call   100f14 <irq_handler>
  100b5e:	8b 45 08             	mov    0x8(%ebp),%eax
  100b61:	8b 40 1c             	mov    0x1c(%eax),%eax
  100b64:	83 f8 27             	cmp    $0x27,%eax
  100b67:	76 12                	jbe    100b7b <handle_interrupt+0x164>
  100b69:	83 ec 08             	sub    $0x8,%esp
  100b6c:	6a 20                	push   $0x20
  100b6e:	68 a0 00 00 00       	push   $0xa0
  100b73:	e8 38 00 00 00       	call   100bb0 <outb>
  100b78:	83 c4 10             	add    $0x10,%esp
  100b7b:	83 ec 08             	sub    $0x8,%esp
  100b7e:	6a 20                	push   $0x20
  100b80:	6a 20                	push   $0x20
  100b82:	e8 29 00 00 00       	call   100bb0 <outb>
  100b87:	83 c4 10             	add    $0x10,%esp
  100b8a:	eb 19                	jmp    100ba5 <handle_interrupt+0x18e>
  100b8c:	8b 45 08             	mov    0x8(%ebp),%eax
  100b8f:	8b 40 1c             	mov    0x1c(%eax),%eax
  100b92:	83 f8 30             	cmp    $0x30,%eax
  100b95:	75 0e                	jne    100ba5 <handle_interrupt+0x18e>
  100b97:	83 ec 0c             	sub    $0xc,%esp
  100b9a:	ff 75 08             	pushl  0x8(%ebp)
  100b9d:	e8 37 fe ff ff       	call   1009d9 <syscall>
  100ba2:	83 c4 10             	add    $0x10,%esp
  100ba5:	8b 45 e4             	mov    -0x1c(%ebp),%eax
  100ba8:	8d 65 f4             	lea    -0xc(%ebp),%esp
  100bab:	5b                   	pop    %ebx
  100bac:	5e                   	pop    %esi
  100bad:	5f                   	pop    %edi
  100bae:	5d                   	pop    %ebp
  100baf:	c3                   	ret    

00100bb0 <outb>:
  100bb0:	55                   	push   %ebp
  100bb1:	89 e5                	mov    %esp,%ebp
  100bb3:	83 ec 08             	sub    $0x8,%esp
  100bb6:	e8 06 2d 00 00       	call   1038c1 <__x86.get_pc_thunk.ax>
  100bbb:	05 65 37 00 00       	add    $0x3765,%eax
  100bc0:	8b 45 08             	mov    0x8(%ebp),%eax
  100bc3:	8b 55 0c             	mov    0xc(%ebp),%edx
  100bc6:	66 89 45 fc          	mov    %ax,-0x4(%ebp)
  100bca:	89 d0                	mov    %edx,%eax
  100bcc:	88 45 f8             	mov    %al,-0x8(%ebp)
  100bcf:	0f b6 45 f8          	movzbl -0x8(%ebp),%eax
  100bd3:	0f b7 55 fc          	movzwl -0x4(%ebp),%edx
  100bd7:	ee                   	out    %al,(%dx)
  100bd8:	90                   	nop
  100bd9:	c9                   	leave  
  100bda:	c3                   	ret    

00100bdb <inb>:
  100bdb:	55                   	push   %ebp
  100bdc:	89 e5                	mov    %esp,%ebp
  100bde:	83 ec 14             	sub    $0x14,%esp
  100be1:	e8 db 2c 00 00       	call   1038c1 <__x86.get_pc_thunk.ax>
  100be6:	05 3a 37 00 00       	add    $0x373a,%eax
  100beb:	8b 45 08             	mov    0x8(%ebp),%eax
  100bee:	66 89 45 ec          	mov    %ax,-0x14(%ebp)
  100bf2:	0f b7 45 ec          	movzwl -0x14(%ebp),%eax
  100bf6:	89 c2                	mov    %eax,%edx
  100bf8:	ec                   	in     (%dx),%al
  100bf9:	88 45 ff             	mov    %al,-0x1(%ebp)
  100bfc:	0f b6 45 ff          	movzbl -0x1(%ebp),%eax
  100c00:	c9                   	leave  
  100c01:	c3                   	ret    

00100c02 <init_keyboard>:
  100c02:	55                   	push   %ebp
  100c03:	89 e5                	mov    %esp,%ebp
  100c05:	53                   	push   %ebx
  100c06:	83 ec 04             	sub    $0x4,%esp
  100c09:	e8 af 2c 00 00       	call   1038bd <__x86.get_pc_thunk.bx>
  100c0e:	81 c3 12 37 00 00    	add    $0x3712,%ebx
  100c14:	eb 0d                	jmp    100c23 <init_keyboard+0x21>
  100c16:	83 ec 0c             	sub    $0xc,%esp
  100c19:	6a 60                	push   $0x60
  100c1b:	e8 bb ff ff ff       	call   100bdb <inb>
  100c20:	83 c4 10             	add    $0x10,%esp
  100c23:	83 ec 0c             	sub    $0xc,%esp
  100c26:	6a 64                	push   $0x64
  100c28:	e8 ae ff ff ff       	call   100bdb <inb>
  100c2d:	83 c4 10             	add    $0x10,%esp
  100c30:	0f b6 c0             	movzbl %al,%eax
  100c33:	83 e0 01             	and    $0x1,%eax
  100c36:	85 c0                	test   %eax,%eax
  100c38:	75 dc                	jne    100c16 <init_keyboard+0x14>
  100c3a:	83 ec 0c             	sub    $0xc,%esp
  100c3d:	68 f4 00 00 00       	push   $0xf4
  100c42:	e8 09 00 00 00       	call   100c50 <send_command>
  100c47:	83 c4 10             	add    $0x10,%esp
  100c4a:	90                   	nop
  100c4b:	8b 5d fc             	mov    -0x4(%ebp),%ebx
  100c4e:	c9                   	leave  
  100c4f:	c3                   	ret    

00100c50 <send_command>:
  100c50:	55                   	push   %ebp
  100c51:	89 e5                	mov    %esp,%ebp
  100c53:	53                   	push   %ebx
  100c54:	83 ec 14             	sub    $0x14,%esp
  100c57:	e8 61 2c 00 00       	call   1038bd <__x86.get_pc_thunk.bx>
  100c5c:	81 c3 c4 36 00 00    	add    $0x36c4,%ebx
  100c62:	8b 45 08             	mov    0x8(%ebp),%eax
  100c65:	88 45 f4             	mov    %al,-0xc(%ebp)
  100c68:	90                   	nop
  100c69:	83 ec 0c             	sub    $0xc,%esp
  100c6c:	6a 64                	push   $0x64
  100c6e:	e8 68 ff ff ff       	call   100bdb <inb>
  100c73:	83 c4 10             	add    $0x10,%esp
  100c76:	0f b6 c0             	movzbl %al,%eax
  100c79:	83 e0 02             	and    $0x2,%eax
  100c7c:	85 c0                	test   %eax,%eax
  100c7e:	75 e9                	jne    100c69 <send_command+0x19>
  100c80:	0f b6 45 f4          	movzbl -0xc(%ebp),%eax
  100c84:	83 ec 08             	sub    $0x8,%esp
  100c87:	50                   	push   %eax
  100c88:	6a 60                	push   $0x60
  100c8a:	e8 21 ff ff ff       	call   100bb0 <outb>
  100c8f:	83 c4 10             	add    $0x10,%esp
  100c92:	90                   	nop
  100c93:	8b 5d fc             	mov    -0x4(%ebp),%ebx
  100c96:	c9                   	leave  
  100c97:	c3                   	ret    

00100c98 <translate_scancode>:
  100c98:	55                   	push   %ebp
  100c99:	89 e5                	mov    %esp,%ebp
  100c9b:	83 ec 04             	sub    $0x4,%esp
  100c9e:	e8 1e 2c 00 00       	call   1038c1 <__x86.get_pc_thunk.ax>
  100ca3:	05 7d 36 00 00       	add    $0x367d,%eax
  100ca8:	8b 55 0c             	mov    0xc(%ebp),%edx
  100cab:	66 89 55 fc          	mov    %dx,-0x4(%ebp)
  100caf:	83 7d 08 00          	cmpl   $0x0,0x8(%ebp)
  100cb3:	0f 85 2b 01 00 00    	jne    100de4 <translate_scancode+0x14c>
  100cb9:	66 83 7d fc 0e       	cmpw   $0xe,-0x4(%ebp)
  100cbe:	75 0a                	jne    100cca <translate_scancode+0x32>
  100cc0:	b8 08 00 00 00       	mov    $0x8,%eax
  100cc5:	e9 37 01 00 00       	jmp    100e01 <translate_scancode+0x169>
  100cca:	66 83 7d fc 0f       	cmpw   $0xf,-0x4(%ebp)
  100ccf:	75 0a                	jne    100cdb <translate_scancode+0x43>
  100cd1:	b8 09 00 00 00       	mov    $0x9,%eax
  100cd6:	e9 26 01 00 00       	jmp    100e01 <translate_scancode+0x169>
  100cdb:	66 83 7d fc 1c       	cmpw   $0x1c,-0x4(%ebp)
  100ce0:	75 0a                	jne    100cec <translate_scancode+0x54>
  100ce2:	b8 0d 00 00 00       	mov    $0xd,%eax
  100ce7:	e9 15 01 00 00       	jmp    100e01 <translate_scancode+0x169>
  100cec:	66 83 7d fc 2a       	cmpw   $0x2a,-0x4(%ebp)
  100cf1:	74 07                	je     100cfa <translate_scancode+0x62>
  100cf3:	66 83 7d fc 36       	cmpw   $0x36,-0x4(%ebp)
  100cf8:	75 34                	jne    100d2e <translate_scancode+0x96>
  100cfa:	8b 88 14 00 00 00    	mov    0x14(%eax),%ecx
  100d00:	8d 90 60 fd ff ff    	lea    -0x2a0(%eax),%edx
  100d06:	39 d1                	cmp    %edx,%ecx
  100d08:	75 0e                	jne    100d18 <translate_scancode+0x80>
  100d0a:	8d 90 40 fe ff ff    	lea    -0x1c0(%eax),%edx
  100d10:	89 90 14 00 00 00    	mov    %edx,0x14(%eax)
  100d16:	eb 0c                	jmp    100d24 <translate_scancode+0x8c>
  100d18:	8d 90 60 fd ff ff    	lea    -0x2a0(%eax),%edx
  100d1e:	89 90 14 00 00 00    	mov    %edx,0x14(%eax)
  100d24:	b8 00 00 00 00       	mov    $0x0,%eax
  100d29:	e9 d3 00 00 00       	jmp    100e01 <translate_scancode+0x169>
  100d2e:	66 83 7d fc 39       	cmpw   $0x39,-0x4(%ebp)
  100d33:	75 0a                	jne    100d3f <translate_scancode+0xa7>
  100d35:	b8 20 00 00 00       	mov    $0x20,%eax
  100d3a:	e9 c2 00 00 00       	jmp    100e01 <translate_scancode+0x169>
  100d3f:	66 83 7d fc 3a       	cmpw   $0x3a,-0x4(%ebp)
  100d44:	75 4d                	jne    100d93 <translate_scancode+0xfb>
  100d46:	8b 88 14 00 00 00    	mov    0x14(%eax),%ecx
  100d4c:	8d 90 60 fd ff ff    	lea    -0x2a0(%eax),%edx
  100d52:	39 d1                	cmp    %edx,%ecx
  100d54:	75 14                	jne    100d6a <translate_scancode+0xd2>
  100d56:	83 7d 10 00          	cmpl   $0x0,0x10(%ebp)
  100d5a:	75 0e                	jne    100d6a <translate_scancode+0xd2>
  100d5c:	8d 90 40 fe ff ff    	lea    -0x1c0(%eax),%edx
  100d62:	89 90 14 00 00 00    	mov    %edx,0x14(%eax)
  100d68:	eb 22                	jmp    100d8c <translate_scancode+0xf4>
  100d6a:	8b 88 14 00 00 00    	mov    0x14(%eax),%ecx
  100d70:	8d 90 40 fe ff ff    	lea    -0x1c0(%eax),%edx
  100d76:	39 d1                	cmp    %edx,%ecx
  100d78:	75 12                	jne    100d8c <translate_scancode+0xf4>
  100d7a:	83 7d 10 00          	cmpl   $0x0,0x10(%ebp)
  100d7e:	75 0c                	jne    100d8c <translate_scancode+0xf4>
  100d80:	8d 90 60 fd ff ff    	lea    -0x2a0(%eax),%edx
  100d86:	89 90 14 00 00 00    	mov    %edx,0x14(%eax)
  100d8c:	b8 00 00 00 00       	mov    $0x0,%eax
  100d91:	eb 6e                	jmp    100e01 <translate_scancode+0x169>
  100d93:	66 83 7d fc 01       	cmpw   $0x1,-0x4(%ebp)
  100d98:	76 07                	jbe    100da1 <translate_scancode+0x109>
  100d9a:	66 83 7d fc 0d       	cmpw   $0xd,-0x4(%ebp)
  100d9f:	76 2a                	jbe    100dcb <translate_scancode+0x133>
  100da1:	66 83 7d fc 0f       	cmpw   $0xf,-0x4(%ebp)
  100da6:	76 07                	jbe    100daf <translate_scancode+0x117>
  100da8:	66 83 7d fc 1a       	cmpw   $0x1a,-0x4(%ebp)
  100dad:	76 1c                	jbe    100dcb <translate_scancode+0x133>
  100daf:	66 83 7d fc 13       	cmpw   $0x13,-0x4(%ebp)
  100db4:	76 07                	jbe    100dbd <translate_scancode+0x125>
  100db6:	66 83 7d fc 29       	cmpw   $0x29,-0x4(%ebp)
  100dbb:	76 0e                	jbe    100dcb <translate_scancode+0x133>
  100dbd:	66 83 7d fc 2a       	cmpw   $0x2a,-0x4(%ebp)
  100dc2:	76 1a                	jbe    100dde <translate_scancode+0x146>
  100dc4:	66 83 7d fc 35       	cmpw   $0x35,-0x4(%ebp)
  100dc9:	77 13                	ja     100dde <translate_scancode+0x146>
  100dcb:	8b 80 14 00 00 00    	mov    0x14(%eax),%eax
  100dd1:	0f b7 55 fc          	movzwl -0x4(%ebp),%edx
  100dd5:	c1 e2 02             	shl    $0x2,%edx
  100dd8:	01 d0                	add    %edx,%eax
  100dda:	8b 00                	mov    (%eax),%eax
  100ddc:	eb 23                	jmp    100e01 <translate_scancode+0x169>
  100dde:	0f b7 45 fc          	movzwl -0x4(%ebp),%eax
  100de2:	eb 1d                	jmp    100e01 <translate_scancode+0x169>
  100de4:	83 7d 08 01          	cmpl   $0x1,0x8(%ebp)
  100de8:	75 06                	jne    100df0 <translate_scancode+0x158>
  100dea:	0f b7 45 fc          	movzwl -0x4(%ebp),%eax
  100dee:	eb 11                	jmp    100e01 <translate_scancode+0x169>
  100df0:	83 7d 08 02          	cmpl   $0x2,0x8(%ebp)
  100df4:	75 06                	jne    100dfc <translate_scancode+0x164>
  100df6:	0f b7 45 fc          	movzwl -0x4(%ebp),%eax
  100dfa:	eb 05                	jmp    100e01 <translate_scancode+0x169>
  100dfc:	b8 ff ff ff ff       	mov    $0xffffffff,%eax
  100e01:	c9                   	leave  
  100e02:	c3                   	ret    

00100e03 <handle_keys>:
  100e03:	55                   	push   %ebp
  100e04:	89 e5                	mov    %esp,%ebp
  100e06:	53                   	push   %ebx
  100e07:	83 ec 64             	sub    $0x64,%esp
  100e0a:	e8 ae 2a 00 00       	call   1038bd <__x86.get_pc_thunk.bx>
  100e0f:	81 c3 11 35 00 00    	add    $0x3511,%ebx
  100e15:	c6 45 f7 00          	movb   $0x0,-0x9(%ebp)
  100e19:	83 7d 08 1f          	cmpl   $0x1f,0x8(%ebp)
  100e1d:	7e 14                	jle    100e33 <handle_keys+0x30>
  100e1f:	81 7d 08 ff 00 00 00 	cmpl   $0xff,0x8(%ebp)
  100e26:	7f 0b                	jg     100e33 <handle_keys+0x30>
  100e28:	8b 45 08             	mov    0x8(%ebp),%eax
  100e2b:	88 45 f7             	mov    %al,-0x9(%ebp)
  100e2e:	e9 d8 00 00 00       	jmp    100f0b <handle_keys+0x108>
  100e33:	83 7d 08 09          	cmpl   $0x9,0x8(%ebp)
  100e37:	75 09                	jne    100e42 <handle_keys+0x3f>
  100e39:	c6 45 f7 09          	movb   $0x9,-0x9(%ebp)
  100e3d:	e9 c9 00 00 00       	jmp    100f0b <handle_keys+0x108>
  100e42:	83 7d 08 0d          	cmpl   $0xd,0x8(%ebp)
  100e46:	0f 85 b5 00 00 00    	jne    100f01 <handle_keys+0xfe>
  100e4c:	c7 45 a7 58 58 58 58 	movl   $0x58585858,-0x59(%ebp)
  100e53:	c7 45 ab 58 58 58 58 	movl   $0x58585858,-0x55(%ebp)
  100e5a:	c7 45 af 58 58 58 58 	movl   $0x58585858,-0x51(%ebp)
  100e61:	c7 45 b3 58 58 58 58 	movl   $0x58585858,-0x4d(%ebp)
  100e68:	c7 45 b7 58 58 58 58 	movl   $0x58585858,-0x49(%ebp)
  100e6f:	c7 45 bb 58 58 58 58 	movl   $0x58585858,-0x45(%ebp)
  100e76:	c7 45 bf 58 58 58 58 	movl   $0x58585858,-0x41(%ebp)
  100e7d:	c7 45 c3 58 58 58 58 	movl   $0x58585858,-0x3d(%ebp)
  100e84:	c7 45 c7 58 58 58 58 	movl   $0x58585858,-0x39(%ebp)
  100e8b:	c7 45 cb 58 58 58 58 	movl   $0x58585858,-0x35(%ebp)
  100e92:	c7 45 cf 58 58 58 58 	movl   $0x58585858,-0x31(%ebp)
  100e99:	c7 45 d3 58 58 58 58 	movl   $0x58585858,-0x2d(%ebp)
  100ea0:	c7 45 d7 58 58 58 58 	movl   $0x58585858,-0x29(%ebp)
  100ea7:	c7 45 db 58 58 58 58 	movl   $0x58585858,-0x25(%ebp)
  100eae:	c7 45 df 58 58 58 58 	movl   $0x58585858,-0x21(%ebp)
  100eb5:	c7 45 e3 58 58 58 00 	movl   $0x585858,-0x1d(%ebp)
  100ebc:	c7 45 e7 00 00 00 00 	movl   $0x0,-0x19(%ebp)
  100ec3:	c7 45 eb 00 00 00 00 	movl   $0x0,-0x15(%ebp)
  100eca:	c7 45 ef 00 00 00 00 	movl   $0x0,-0x11(%ebp)
  100ed1:	c7 45 f3 00 00 00 00 	movl   $0x0,-0xd(%ebp)
  100ed8:	c7 c0 4c 80 10 00    	mov    $0x10804c,%eax
  100ede:	8b 00                	mov    (%eax),%eax
  100ee0:	83 ec 08             	sub    $0x8,%esp
  100ee3:	50                   	push   %eax
  100ee4:	8d 45 a7             	lea    -0x59(%ebp),%eax
  100ee7:	50                   	push   %eax
  100ee8:	e8 b0 0d 00 00       	call   101c9d <getLine>
  100eed:	83 c4 10             	add    $0x10,%esp
  100ef0:	83 ec 0c             	sub    $0xc,%esp
  100ef3:	8d 45 a7             	lea    -0x59(%ebp),%eax
  100ef6:	50                   	push   %eax
  100ef7:	e8 ba 1d 00 00       	call   102cb6 <proccedCommand>
  100efc:	83 c4 10             	add    $0x10,%esp
  100eff:	eb 0a                	jmp    100f0b <handle_keys+0x108>
  100f01:	83 7d 08 08          	cmpl   $0x8,0x8(%ebp)
  100f05:	75 04                	jne    100f0b <handle_keys+0x108>
  100f07:	c6 45 f7 08          	movb   $0x8,-0x9(%ebp)
  100f0b:	0f b6 45 f7          	movzbl -0x9(%ebp),%eax
  100f0f:	8b 5d fc             	mov    -0x4(%ebp),%ebx
  100f12:	c9                   	leave  
  100f13:	c3                   	ret    

00100f14 <irq_handler>:
  100f14:	55                   	push   %ebp
  100f15:	89 e5                	mov    %esp,%ebp
  100f17:	53                   	push   %ebx
  100f18:	83 ec 54             	sub    $0x54,%esp
  100f1b:	e8 9d 29 00 00       	call   1038bd <__x86.get_pc_thunk.bx>
  100f20:	81 c3 00 34 00 00    	add    $0x3400,%ebx
  100f26:	c6 45 f6 00          	movb   $0x0,-0xa(%ebp)
  100f2a:	c7 45 f0 00 00 00 00 	movl   $0x0,-0x10(%ebp)
  100f31:	83 ec 0c             	sub    $0xc,%esp
  100f34:	6a 60                	push   $0x60
  100f36:	e8 a0 fc ff ff       	call   100bdb <inb>
  100f3b:	83 c4 10             	add    $0x10,%esp
  100f3e:	88 45 f7             	mov    %al,-0x9(%ebp)
  100f41:	0f b6 45 f7          	movzbl -0x9(%ebp),%eax
  100f45:	84 c0                	test   %al,%al
  100f47:	79 2b                	jns    100f74 <irq_handler+0x60>
  100f49:	8b 83 10 1d 00 00    	mov    0x1d10(%ebx),%eax
  100f4f:	85 c0                	test   %eax,%eax
  100f51:	75 06                	jne    100f59 <irq_handler+0x45>
  100f53:	80 7d f7 e1          	cmpb   $0xe1,-0x9(%ebp)
  100f57:	74 1b                	je     100f74 <irq_handler+0x60>
  100f59:	8b 83 14 1d 00 00    	mov    0x1d14(%ebx),%eax
  100f5f:	85 c0                	test   %eax,%eax
  100f61:	75 06                	jne    100f69 <irq_handler+0x55>
  100f63:	80 7d f7 e0          	cmpb   $0xe0,-0x9(%ebp)
  100f67:	74 0b                	je     100f74 <irq_handler+0x60>
  100f69:	c7 45 f0 01 00 00 00 	movl   $0x1,-0x10(%ebp)
  100f70:	80 65 f7 7f          	andb   $0x7f,-0x9(%ebp)
  100f74:	8b 83 14 1d 00 00    	mov    0x1d14(%ebx),%eax
  100f7a:	85 c0                	test   %eax,%eax
  100f7c:	74 42                	je     100fc0 <irq_handler+0xac>
  100f7e:	80 7d f7 2a          	cmpb   $0x2a,-0x9(%ebp)
  100f82:	74 06                	je     100f8a <irq_handler+0x76>
  100f84:	80 7d f7 36          	cmpb   $0x36,-0x9(%ebp)
  100f88:	75 0f                	jne    100f99 <irq_handler+0x85>
  100f8a:	c7 83 14 1d 00 00 00 	movl   $0x0,0x1d14(%ebx)
  100f91:	00 00 00 
  100f94:	e9 a9 01 00 00       	jmp    101142 <irq_handler+0x22e>
  100f99:	0f b6 45 f7          	movzbl -0x9(%ebp),%eax
  100f9d:	83 ec 04             	sub    $0x4,%esp
  100fa0:	ff 75 f0             	pushl  -0x10(%ebp)
  100fa3:	50                   	push   %eax
  100fa4:	6a 01                	push   $0x1
  100fa6:	e8 ed fc ff ff       	call   100c98 <translate_scancode>
  100fab:	83 c4 10             	add    $0x10,%esp
  100fae:	88 45 f6             	mov    %al,-0xa(%ebp)
  100fb1:	c7 83 14 1d 00 00 00 	movl   $0x0,0x1d14(%ebx)
  100fb8:	00 00 00 
  100fbb:	e9 b1 00 00 00       	jmp    101071 <irq_handler+0x15d>
  100fc0:	8b 83 10 1d 00 00    	mov    0x1d10(%ebx),%eax
  100fc6:	83 f8 02             	cmp    $0x2,%eax
  100fc9:	75 43                	jne    10100e <irq_handler+0xfa>
  100fcb:	0f b6 45 f7          	movzbl -0x9(%ebp),%eax
  100fcf:	c1 e0 08             	shl    $0x8,%eax
  100fd2:	89 c2                	mov    %eax,%edx
  100fd4:	0f b7 83 18 1d 00 00 	movzwl 0x1d18(%ebx),%eax
  100fdb:	09 d0                	or     %edx,%eax
  100fdd:	66 89 83 18 1d 00 00 	mov    %ax,0x1d18(%ebx)
  100fe4:	0f b7 83 18 1d 00 00 	movzwl 0x1d18(%ebx),%eax
  100feb:	0f b7 c0             	movzwl %ax,%eax
  100fee:	83 ec 04             	sub    $0x4,%esp
  100ff1:	ff 75 f0             	pushl  -0x10(%ebp)
  100ff4:	50                   	push   %eax
  100ff5:	6a 02                	push   $0x2
  100ff7:	e8 9c fc ff ff       	call   100c98 <translate_scancode>
  100ffc:	83 c4 10             	add    $0x10,%esp
  100fff:	88 45 f6             	mov    %al,-0xa(%ebp)
  101002:	c7 83 10 1d 00 00 00 	movl   $0x0,0x1d10(%ebx)
  101009:	00 00 00 
  10100c:	eb 63                	jmp    101071 <irq_handler+0x15d>
  10100e:	8b 83 10 1d 00 00    	mov    0x1d10(%ebx),%eax
  101014:	83 f8 01             	cmp    $0x1,%eax
  101017:	75 1c                	jne    101035 <irq_handler+0x121>
  101019:	0f b6 45 f7          	movzbl -0x9(%ebp),%eax
  10101d:	66 89 83 18 1d 00 00 	mov    %ax,0x1d18(%ebx)
  101024:	8b 83 10 1d 00 00    	mov    0x1d10(%ebx),%eax
  10102a:	83 c0 01             	add    $0x1,%eax
  10102d:	89 83 10 1d 00 00    	mov    %eax,0x1d10(%ebx)
  101033:	eb 3c                	jmp    101071 <irq_handler+0x15d>
  101035:	80 7d f7 e0          	cmpb   $0xe0,-0x9(%ebp)
  101039:	75 0c                	jne    101047 <irq_handler+0x133>
  10103b:	c7 83 14 1d 00 00 01 	movl   $0x1,0x1d14(%ebx)
  101042:	00 00 00 
  101045:	eb 2a                	jmp    101071 <irq_handler+0x15d>
  101047:	80 7d f7 e1          	cmpb   $0xe1,-0x9(%ebp)
  10104b:	75 0c                	jne    101059 <irq_handler+0x145>
  10104d:	c7 83 10 1d 00 00 01 	movl   $0x1,0x1d10(%ebx)
  101054:	00 00 00 
  101057:	eb 18                	jmp    101071 <irq_handler+0x15d>
  101059:	0f b6 45 f7          	movzbl -0x9(%ebp),%eax
  10105d:	83 ec 04             	sub    $0x4,%esp
  101060:	ff 75 f0             	pushl  -0x10(%ebp)
  101063:	50                   	push   %eax
  101064:	6a 00                	push   $0x0
  101066:	e8 2d fc ff ff       	call   100c98 <translate_scancode>
  10106b:	83 c4 10             	add    $0x10,%esp
  10106e:	88 45 f6             	mov    %al,-0xa(%ebp)
  101071:	83 7d f0 00          	cmpl   $0x0,-0x10(%ebp)
  101075:	0f 85 c7 00 00 00    	jne    101142 <irq_handler+0x22e>
  10107b:	c7 45 af 58 58 58 00 	movl   $0x585858,-0x51(%ebp)
  101082:	c7 45 b3 00 00 00 00 	movl   $0x0,-0x4d(%ebp)
  101089:	c7 45 b7 00 00 00 00 	movl   $0x0,-0x49(%ebp)
  101090:	c7 45 bb 00 00 00 00 	movl   $0x0,-0x45(%ebp)
  101097:	c7 45 bf 00 00 00 00 	movl   $0x0,-0x41(%ebp)
  10109e:	c7 45 c3 00 00 00 00 	movl   $0x0,-0x3d(%ebp)
  1010a5:	c7 45 c7 00 00 00 00 	movl   $0x0,-0x39(%ebp)
  1010ac:	c7 45 cb 00 00 00 00 	movl   $0x0,-0x35(%ebp)
  1010b3:	c7 45 cf 00 00 00 00 	movl   $0x0,-0x31(%ebp)
  1010ba:	c7 45 d3 00 00 00 00 	movl   $0x0,-0x2d(%ebp)
  1010c1:	c7 45 d7 00 00 00 00 	movl   $0x0,-0x29(%ebp)
  1010c8:	c7 45 db 00 00 00 00 	movl   $0x0,-0x25(%ebp)
  1010cf:	c7 45 df 00 00 00 00 	movl   $0x0,-0x21(%ebp)
  1010d6:	c7 45 e3 00 00 00 00 	movl   $0x0,-0x1d(%ebp)
  1010dd:	c7 45 e7 00 00 00 00 	movl   $0x0,-0x19(%ebp)
  1010e4:	c7 45 eb 00 00 00 00 	movl   $0x0,-0x15(%ebp)
  1010eb:	0f b6 45 f6          	movzbl -0xa(%ebp),%eax
  1010ef:	83 ec 0c             	sub    $0xc,%esp
  1010f2:	50                   	push   %eax
  1010f3:	e8 0b fd ff ff       	call   100e03 <handle_keys>
  1010f8:	83 c4 10             	add    $0x10,%esp
  1010fb:	88 45 ef             	mov    %al,-0x11(%ebp)
  1010fe:	83 ec 0c             	sub    $0xc,%esp
  101101:	6a 00                	push   $0x0
  101103:	e8 5a 05 00 00       	call   101662 <setBgColor>
  101108:	83 c4 10             	add    $0x10,%esp
  10110b:	83 ec 0c             	sub    $0xc,%esp
  10110e:	6a 0b                	push   $0xb
  101110:	e8 66 05 00 00       	call   10167b <setTextColor>
  101115:	83 c4 10             	add    $0x10,%esp
  101118:	0f be 45 ef          	movsbl -0x11(%ebp),%eax
  10111c:	83 ec 04             	sub    $0x4,%esp
  10111f:	50                   	push   %eax
  101120:	8d 83 94 0d 00 00    	lea    0xd94(%ebx),%eax
  101126:	50                   	push   %eax
  101127:	8d 45 af             	lea    -0x51(%ebp),%eax
  10112a:	50                   	push   %eax
  10112b:	e8 8c 18 00 00       	call   1029bc <printf>
  101130:	83 c4 10             	add    $0x10,%esp
  101133:	83 ec 0c             	sub    $0xc,%esp
  101136:	8d 45 af             	lea    -0x51(%ebp),%eax
  101139:	50                   	push   %eax
  10113a:	e8 25 06 00 00       	call   101764 <puts>
  10113f:	83 c4 10             	add    $0x10,%esp
  101142:	8b 5d fc             	mov    -0x4(%ebp),%ebx
  101145:	c9                   	leave  
  101146:	c3                   	ret    

00101147 <intr_stub_0>:
  101147:	6a 00                	push   $0x0
  101149:	6a 00                	push   $0x0
  10114b:	e9 eb 00 00 00       	jmp    10123b <intr_common_handler>

00101150 <intr_stub_1>:
  101150:	6a 00                	push   $0x0
  101152:	6a 01                	push   $0x1
  101154:	e9 e2 00 00 00       	jmp    10123b <intr_common_handler>

00101159 <intr_stub_2>:
  101159:	6a 00                	push   $0x0
  10115b:	6a 02                	push   $0x2
  10115d:	e9 d9 00 00 00       	jmp    10123b <intr_common_handler>

00101162 <intr_stub_3>:
  101162:	6a 00                	push   $0x0
  101164:	6a 03                	push   $0x3
  101166:	e9 d0 00 00 00       	jmp    10123b <intr_common_handler>

0010116b <intr_stub_4>:
  10116b:	6a 00                	push   $0x0
  10116d:	6a 04                	push   $0x4
  10116f:	e9 c7 00 00 00       	jmp    10123b <intr_common_handler>

00101174 <intr_stub_5>:
  101174:	6a 00                	push   $0x0
  101176:	6a 05                	push   $0x5
  101178:	e9 be 00 00 00       	jmp    10123b <intr_common_handler>

0010117d <intr_stub_6>:
  10117d:	6a 00                	push   $0x0
  10117f:	6a 06                	push   $0x6
  101181:	e9 b5 00 00 00       	jmp    10123b <intr_common_handler>

00101186 <intr_stub_7>:
  101186:	6a 00                	push   $0x0
  101188:	6a 07                	push   $0x7
  10118a:	e9 ac 00 00 00       	jmp    10123b <intr_common_handler>

0010118f <intr_stub_8>:
  10118f:	6a 08                	push   $0x8
  101191:	e9 a5 00 00 00       	jmp    10123b <intr_common_handler>

00101196 <intr_stub_9>:
  101196:	6a 00                	push   $0x0
  101198:	6a 09                	push   $0x9
  10119a:	e9 9c 00 00 00       	jmp    10123b <intr_common_handler>

0010119f <intr_stub_10>:
  10119f:	6a 0a                	push   $0xa
  1011a1:	e9 95 00 00 00       	jmp    10123b <intr_common_handler>

001011a6 <intr_stub_11>:
  1011a6:	6a 0b                	push   $0xb
  1011a8:	e9 8e 00 00 00       	jmp    10123b <intr_common_handler>

001011ad <intr_stub_12>:
  1011ad:	6a 0c                	push   $0xc
  1011af:	e9 87 00 00 00       	jmp    10123b <intr_common_handler>

001011b4 <intr_stub_13>:
  1011b4:	6a 0d                	push   $0xd
  1011b6:	e9 80 00 00 00       	jmp    10123b <intr_common_handler>

001011bb <intr_stub_14>:
  1011bb:	6a 0e                	push   $0xe
  1011bd:	eb 7c                	jmp    10123b <intr_common_handler>

001011bf <intr_stub_15>:
  1011bf:	6a 00                	push   $0x0
  1011c1:	6a 0f                	push   $0xf
  1011c3:	eb 76                	jmp    10123b <intr_common_handler>

001011c5 <intr_stub_16>:
  1011c5:	6a 00                	push   $0x0
  1011c7:	6a 10                	push   $0x10
  1011c9:	eb 70                	jmp    10123b <intr_common_handler>

001011cb <intr_stub_17>:
  1011cb:	6a 11                	push   $0x11
  1011cd:	eb 6c                	jmp    10123b <intr_common_handler>

001011cf <intr_stub_18>:
  1011cf:	6a 00                	push   $0x0
  1011d1:	6a 12                	push   $0x12
  1011d3:	eb 66                	jmp    10123b <intr_common_handler>

001011d5 <intr_stub_32>:
  1011d5:	6a 00                	push   $0x0
  1011d7:	6a 20                	push   $0x20
  1011d9:	eb 60                	jmp    10123b <intr_common_handler>

001011db <intr_stub_33>:
  1011db:	6a 00                	push   $0x0
  1011dd:	6a 21                	push   $0x21
  1011df:	eb 5a                	jmp    10123b <intr_common_handler>

001011e1 <intr_stub_34>:
  1011e1:	6a 00                	push   $0x0
  1011e3:	6a 22                	push   $0x22
  1011e5:	eb 54                	jmp    10123b <intr_common_handler>

001011e7 <intr_stub_35>:
  1011e7:	6a 00                	push   $0x0
  1011e9:	6a 23                	push   $0x23
  1011eb:	eb 4e                	jmp    10123b <intr_common_handler>

001011ed <intr_stub_36>:
  1011ed:	6a 00                	push   $0x0
  1011ef:	6a 24                	push   $0x24
  1011f1:	eb 48                	jmp    10123b <intr_common_handler>

001011f3 <intr_stub_37>:
  1011f3:	6a 00                	push   $0x0
  1011f5:	6a 25                	push   $0x25
  1011f7:	eb 42                	jmp    10123b <intr_common_handler>

001011f9 <intr_stub_38>:
  1011f9:	6a 00                	push   $0x0
  1011fb:	6a 26                	push   $0x26
  1011fd:	eb 3c                	jmp    10123b <intr_common_handler>

001011ff <intr_stub_39>:
  1011ff:	6a 00                	push   $0x0
  101201:	6a 27                	push   $0x27
  101203:	eb 36                	jmp    10123b <intr_common_handler>

00101205 <intr_stub_40>:
  101205:	6a 00                	push   $0x0
  101207:	6a 28                	push   $0x28
  101209:	eb 30                	jmp    10123b <intr_common_handler>

0010120b <intr_stub_41>:
  10120b:	6a 00                	push   $0x0
  10120d:	6a 29                	push   $0x29
  10120f:	eb 2a                	jmp    10123b <intr_common_handler>

00101211 <intr_stub_42>:
  101211:	6a 00                	push   $0x0
  101213:	6a 2a                	push   $0x2a
  101215:	eb 24                	jmp    10123b <intr_common_handler>

00101217 <intr_stub_43>:
  101217:	6a 00                	push   $0x0
  101219:	6a 2b                	push   $0x2b
  10121b:	eb 1e                	jmp    10123b <intr_common_handler>

0010121d <intr_stub_44>:
  10121d:	6a 00                	push   $0x0
  10121f:	6a 2c                	push   $0x2c
  101221:	eb 18                	jmp    10123b <intr_common_handler>

00101223 <intr_stub_45>:
  101223:	6a 00                	push   $0x0
  101225:	6a 2d                	push   $0x2d
  101227:	eb 12                	jmp    10123b <intr_common_handler>

00101229 <intr_stub_46>:
  101229:	6a 00                	push   $0x0
  10122b:	6a 2e                	push   $0x2e
  10122d:	eb 0c                	jmp    10123b <intr_common_handler>

0010122f <intr_stub_47>:
  10122f:	6a 00                	push   $0x0
  101231:	6a 2f                	push   $0x2f
  101233:	eb 06                	jmp    10123b <intr_common_handler>

00101235 <intr_stub_48>:
  101235:	6a 00                	push   $0x0
  101237:	6a 30                	push   $0x30
  101239:	eb 00                	jmp    10123b <intr_common_handler>

0010123b <intr_common_handler>:
  10123b:	55                   	push   %ebp
  10123c:	57                   	push   %edi
  10123d:	56                   	push   %esi
  10123e:	52                   	push   %edx
  10123f:	51                   	push   %ecx
  101240:	53                   	push   %ebx
  101241:	50                   	push   %eax
  101242:	66 b8 10 00          	mov    $0x10,%ax
  101246:	8e d8                	mov    %eax,%ds
  101248:	8e c0                	mov    %eax,%es
  10124a:	54                   	push   %esp
  10124b:	e8 c7 f7 ff ff       	call   100a17 <handle_interrupt>
  101250:	89 c4                	mov    %eax,%esp
  101252:	66 b8 23 00          	mov    $0x23,%ax
  101256:	8e d8                	mov    %eax,%ds
  101258:	8e c0                	mov    %eax,%es
  10125a:	58                   	pop    %eax
  10125b:	5b                   	pop    %ebx
  10125c:	59                   	pop    %ecx
  10125d:	5a                   	pop    %edx
  10125e:	5e                   	pop    %esi
  10125f:	5f                   	pop    %edi
  101260:	5d                   	pop    %ebp
  101261:	83 c4 08             	add    $0x8,%esp
  101264:	cf                   	iret   

00101265 <_start>:
  101265:	bc 3a 80 10 00       	mov    $0x10803a,%esp
  10126a:	53                   	push   %ebx
  10126b:	e8 9c ed ff ff       	call   10000c <init>

00101270 <_stop>:
  101270:	fa                   	cli    
  101271:	f4                   	hlt    
  101272:	eb fc                	jmp    101270 <_stop>

00101274 <memset>:
  101274:	55                   	push   %ebp
  101275:	89 e5                	mov    %esp,%ebp
  101277:	83 ec 10             	sub    $0x10,%esp
  10127a:	e8 42 26 00 00       	call   1038c1 <__x86.get_pc_thunk.ax>
  10127f:	05 a1 30 00 00       	add    $0x30a1,%eax
  101284:	8b 45 08             	mov    0x8(%ebp),%eax
  101287:	89 45 fc             	mov    %eax,-0x4(%ebp)
  10128a:	eb 0e                	jmp    10129a <memset+0x26>
  10128c:	8b 45 fc             	mov    -0x4(%ebp),%eax
  10128f:	8d 50 01             	lea    0x1(%eax),%edx
  101292:	89 55 fc             	mov    %edx,-0x4(%ebp)
  101295:	8b 55 0c             	mov    0xc(%ebp),%edx
  101298:	88 10                	mov    %dl,(%eax)
  10129a:	8b 45 10             	mov    0x10(%ebp),%eax
  10129d:	8d 50 ff             	lea    -0x1(%eax),%edx
  1012a0:	89 55 10             	mov    %edx,0x10(%ebp)
  1012a3:	85 c0                	test   %eax,%eax
  1012a5:	75 e5                	jne    10128c <memset+0x18>
  1012a7:	8b 45 08             	mov    0x8(%ebp),%eax
  1012aa:	c9                   	leave  
  1012ab:	c3                   	ret    

001012ac <memcpy>:
  1012ac:	55                   	push   %ebp
  1012ad:	89 e5                	mov    %esp,%ebp
  1012af:	83 ec 10             	sub    $0x10,%esp
  1012b2:	e8 0a 26 00 00       	call   1038c1 <__x86.get_pc_thunk.ax>
  1012b7:	05 69 30 00 00       	add    $0x3069,%eax
  1012bc:	8b 45 08             	mov    0x8(%ebp),%eax
  1012bf:	89 45 fc             	mov    %eax,-0x4(%ebp)
  1012c2:	8b 45 0c             	mov    0xc(%ebp),%eax
  1012c5:	89 45 f8             	mov    %eax,-0x8(%ebp)
  1012c8:	eb 17                	jmp    1012e1 <memcpy+0x35>
  1012ca:	8b 55 f8             	mov    -0x8(%ebp),%edx
  1012cd:	8d 42 01             	lea    0x1(%edx),%eax
  1012d0:	89 45 f8             	mov    %eax,-0x8(%ebp)
  1012d3:	8b 45 fc             	mov    -0x4(%ebp),%eax
  1012d6:	8d 48 01             	lea    0x1(%eax),%ecx
  1012d9:	89 4d fc             	mov    %ecx,-0x4(%ebp)
  1012dc:	0f b6 12             	movzbl (%edx),%edx
  1012df:	88 10                	mov    %dl,(%eax)
  1012e1:	8b 45 10             	mov    0x10(%ebp),%eax
  1012e4:	8d 50 ff             	lea    -0x1(%eax),%edx
  1012e7:	89 55 10             	mov    %edx,0x10(%ebp)
  1012ea:	85 c0                	test   %eax,%eax
  1012ec:	75 dc                	jne    1012ca <memcpy+0x1e>
  1012ee:	8b 45 08             	mov    0x8(%ebp),%eax
  1012f1:	c9                   	leave  
  1012f2:	c3                   	ret    

001012f3 <task_a>:
  1012f3:	55                   	push   %ebp
  1012f4:	89 e5                	mov    %esp,%ebp
  1012f6:	53                   	push   %ebx
  1012f7:	83 ec 04             	sub    $0x4,%esp
  1012fa:	e8 be 25 00 00       	call   1038bd <__x86.get_pc_thunk.bx>
  1012ff:	81 c3 21 30 00 00    	add    $0x3021,%ebx
  101305:	83 ec 0c             	sub    $0xc,%esp
  101308:	8d 83 98 0d 00 00    	lea    0xd98(%ebx),%eax
  10130e:	50                   	push   %eax
  10130f:	e8 e8 16 00 00       	call   1029fc <println>
  101314:	83 c4 10             	add    $0x10,%esp
  101317:	eb ec                	jmp    101305 <task_a+0x12>

00101319 <task_b>:
  101319:	55                   	push   %ebp
  10131a:	89 e5                	mov    %esp,%ebp
  10131c:	53                   	push   %ebx
  10131d:	83 ec 04             	sub    $0x4,%esp
  101320:	e8 98 25 00 00       	call   1038bd <__x86.get_pc_thunk.bx>
  101325:	81 c3 fb 2f 00 00    	add    $0x2ffb,%ebx
  10132b:	83 ec 0c             	sub    $0xc,%esp
  10132e:	8d 83 9a 0d 00 00    	lea    0xd9a(%ebx),%eax
  101334:	50                   	push   %eax
  101335:	e8 c2 16 00 00       	call   1029fc <println>
  10133a:	83 c4 10             	add    $0x10,%esp
  10133d:	eb ec                	jmp    10132b <task_b+0x12>

0010133f <init_task>:
  10133f:	55                   	push   %ebp
  101340:	89 e5                	mov    %esp,%ebp
  101342:	57                   	push   %edi
  101343:	53                   	push   %ebx
  101344:	83 ec 50             	sub    $0x50,%esp
  101347:	e8 71 25 00 00       	call   1038bd <__x86.get_pc_thunk.bx>
  10134c:	81 c3 d4 2f 00 00    	add    $0x2fd4,%ebx
  101352:	e8 00 1f 00 00       	call   103257 <pmm_alloc>
  101357:	89 45 f4             	mov    %eax,-0xc(%ebp)
  10135a:	e8 f8 1e 00 00       	call   103257 <pmm_alloc>
  10135f:	89 45 f0             	mov    %eax,-0x10(%ebp)
  101362:	8d 55 b0             	lea    -0x50(%ebp),%edx
  101365:	b8 00 00 00 00       	mov    $0x0,%eax
  10136a:	b9 0e 00 00 00       	mov    $0xe,%ecx
  10136f:	89 d7                	mov    %edx,%edi
  101371:	f3 ab                	rep stos %eax,%es:(%edi)
  101373:	8b 45 08             	mov    0x8(%ebp),%eax
  101376:	89 45 d4             	mov    %eax,-0x2c(%ebp)
  101379:	c7 45 d8 1b 00 00 00 	movl   $0x1b,-0x28(%ebp)
  101380:	c7 45 dc 02 02 00 00 	movl   $0x202,-0x24(%ebp)
  101387:	8b 45 f0             	mov    -0x10(%ebp),%eax
  10138a:	05 00 10 00 00       	add    $0x1000,%eax
  10138f:	89 45 e0             	mov    %eax,-0x20(%ebp)
  101392:	c7 45 e4 23 00 00 00 	movl   $0x23,-0x1c(%ebp)
  101399:	8b 45 f4             	mov    -0xc(%ebp),%eax
  10139c:	05 c8 0f 00 00       	add    $0xfc8,%eax
  1013a1:	89 45 ec             	mov    %eax,-0x14(%ebp)
  1013a4:	8b 45 ec             	mov    -0x14(%ebp),%eax
  1013a7:	8b 55 b0             	mov    -0x50(%ebp),%edx
  1013aa:	89 10                	mov    %edx,(%eax)
  1013ac:	8b 55 b4             	mov    -0x4c(%ebp),%edx
  1013af:	89 50 04             	mov    %edx,0x4(%eax)
  1013b2:	8b 55 b8             	mov    -0x48(%ebp),%edx
  1013b5:	89 50 08             	mov    %edx,0x8(%eax)
  1013b8:	8b 55 bc             	mov    -0x44(%ebp),%edx
  1013bb:	89 50 0c             	mov    %edx,0xc(%eax)
  1013be:	8b 55 c0             	mov    -0x40(%ebp),%edx
  1013c1:	89 50 10             	mov    %edx,0x10(%eax)
  1013c4:	8b 55 c4             	mov    -0x3c(%ebp),%edx
  1013c7:	89 50 14             	mov    %edx,0x14(%eax)
  1013ca:	8b 55 c8             	mov    -0x38(%ebp),%edx
  1013cd:	89 50 18             	mov    %edx,0x18(%eax)
  1013d0:	8b 55 cc             	mov    -0x34(%ebp),%edx
  1013d3:	89 50 1c             	mov    %edx,0x1c(%eax)
  1013d6:	8b 55 d0             	mov    -0x30(%ebp),%edx
  1013d9:	89 50 20             	mov    %edx,0x20(%eax)
  1013dc:	8b 55 d4             	mov    -0x2c(%ebp),%edx
  1013df:	89 50 24             	mov    %edx,0x24(%eax)
  1013e2:	8b 55 d8             	mov    -0x28(%ebp),%edx
  1013e5:	89 50 28             	mov    %edx,0x28(%eax)
  1013e8:	8b 55 dc             	mov    -0x24(%ebp),%edx
  1013eb:	89 50 2c             	mov    %edx,0x2c(%eax)
  1013ee:	8b 55 e0             	mov    -0x20(%ebp),%edx
  1013f1:	89 50 30             	mov    %edx,0x30(%eax)
  1013f4:	8b 55 e4             	mov    -0x1c(%ebp),%edx
  1013f7:	89 50 34             	mov    %edx,0x34(%eax)
  1013fa:	e8 58 1e 00 00       	call   103257 <pmm_alloc>
  1013ff:	89 45 e8             	mov    %eax,-0x18(%ebp)
  101402:	8b 45 e8             	mov    -0x18(%ebp),%eax
  101405:	8b 55 ec             	mov    -0x14(%ebp),%edx
  101408:	89 10                	mov    %edx,(%eax)
  10140a:	8b 93 1c 3d 00 00    	mov    0x3d1c(%ebx),%edx
  101410:	8b 45 e8             	mov    -0x18(%ebp),%eax
  101413:	89 50 04             	mov    %edx,0x4(%eax)
  101416:	8b 45 e8             	mov    -0x18(%ebp),%eax
  101419:	89 83 1c 3d 00 00    	mov    %eax,0x3d1c(%ebx)
  10141f:	8b 45 e8             	mov    -0x18(%ebp),%eax
  101422:	83 c4 50             	add    $0x50,%esp
  101425:	5b                   	pop    %ebx
  101426:	5f                   	pop    %edi
  101427:	5d                   	pop    %ebp
  101428:	c3                   	ret    

00101429 <init_elf>:
  101429:	55                   	push   %ebp
  10142a:	89 e5                	mov    %esp,%ebp
  10142c:	53                   	push   %ebx
  10142d:	83 ec 24             	sub    $0x24,%esp
  101430:	e8 8c 24 00 00       	call   1038c1 <__x86.get_pc_thunk.ax>
  101435:	05 eb 2e 00 00       	add    $0x2eeb,%eax
  10143a:	8b 55 08             	mov    0x8(%ebp),%edx
  10143d:	89 55 ec             	mov    %edx,-0x14(%ebp)
  101440:	8b 55 ec             	mov    -0x14(%ebp),%edx
  101443:	8b 12                	mov    (%edx),%edx
  101445:	81 fa 7f 45 4c 46    	cmp    $0x464c457f,%edx
  10144b:	74 19                	je     101466 <init_elf+0x3d>
  10144d:	83 ec 0c             	sub    $0xc,%esp
  101450:	8d 90 9c 0d 00 00    	lea    0xd9c(%eax),%edx
  101456:	52                   	push   %edx
  101457:	89 c3                	mov    %eax,%ebx
  101459:	e8 9e 15 00 00       	call   1029fc <println>
  10145e:	83 c4 10             	add    $0x10,%esp
  101461:	e9 93 00 00 00       	jmp    1014f9 <init_elf+0xd0>
  101466:	8b 45 ec             	mov    -0x14(%ebp),%eax
  101469:	8b 50 1c             	mov    0x1c(%eax),%edx
  10146c:	8b 45 08             	mov    0x8(%ebp),%eax
  10146f:	01 d0                	add    %edx,%eax
  101471:	89 45 f4             	mov    %eax,-0xc(%ebp)
  101474:	c7 45 f0 00 00 00 00 	movl   $0x0,-0x10(%ebp)
  10147b:	eb 5b                	jmp    1014d8 <init_elf+0xaf>
  10147d:	8b 45 f4             	mov    -0xc(%ebp),%eax
  101480:	8b 40 08             	mov    0x8(%eax),%eax
  101483:	89 45 e8             	mov    %eax,-0x18(%ebp)
  101486:	8b 45 f4             	mov    -0xc(%ebp),%eax
  101489:	8b 50 04             	mov    0x4(%eax),%edx
  10148c:	8b 45 08             	mov    0x8(%ebp),%eax
  10148f:	01 d0                	add    %edx,%eax
  101491:	89 45 e4             	mov    %eax,-0x1c(%ebp)
  101494:	8b 45 f4             	mov    -0xc(%ebp),%eax
  101497:	8b 00                	mov    (%eax),%eax
  101499:	83 f8 01             	cmp    $0x1,%eax
  10149c:	75 31                	jne    1014cf <init_elf+0xa6>
  10149e:	8b 45 f4             	mov    -0xc(%ebp),%eax
  1014a1:	8b 40 14             	mov    0x14(%eax),%eax
  1014a4:	83 ec 04             	sub    $0x4,%esp
  1014a7:	50                   	push   %eax
  1014a8:	6a 00                	push   $0x0
  1014aa:	ff 75 e8             	pushl  -0x18(%ebp)
  1014ad:	e8 c2 fd ff ff       	call   101274 <memset>
  1014b2:	83 c4 10             	add    $0x10,%esp
  1014b5:	8b 45 f4             	mov    -0xc(%ebp),%eax
  1014b8:	8b 40 10             	mov    0x10(%eax),%eax
  1014bb:	83 ec 04             	sub    $0x4,%esp
  1014be:	50                   	push   %eax
  1014bf:	ff 75 e4             	pushl  -0x1c(%ebp)
  1014c2:	ff 75 e8             	pushl  -0x18(%ebp)
  1014c5:	e8 e2 fd ff ff       	call   1012ac <memcpy>
  1014ca:	83 c4 10             	add    $0x10,%esp
  1014cd:	eb 01                	jmp    1014d0 <init_elf+0xa7>
  1014cf:	90                   	nop
  1014d0:	83 45 f0 01          	addl   $0x1,-0x10(%ebp)
  1014d4:	83 45 f4 20          	addl   $0x20,-0xc(%ebp)
  1014d8:	8b 45 ec             	mov    -0x14(%ebp),%eax
  1014db:	0f b7 40 2c          	movzwl 0x2c(%eax),%eax
  1014df:	0f b7 c0             	movzwl %ax,%eax
  1014e2:	39 45 f0             	cmp    %eax,-0x10(%ebp)
  1014e5:	7c 96                	jl     10147d <init_elf+0x54>
  1014e7:	8b 45 ec             	mov    -0x14(%ebp),%eax
  1014ea:	8b 40 18             	mov    0x18(%eax),%eax
  1014ed:	83 ec 0c             	sub    $0xc,%esp
  1014f0:	50                   	push   %eax
  1014f1:	e8 49 fe ff ff       	call   10133f <init_task>
  1014f6:	83 c4 10             	add    $0x10,%esp
  1014f9:	8b 5d fc             	mov    -0x4(%ebp),%ebx
  1014fc:	c9                   	leave  
  1014fd:	c3                   	ret    

001014fe <init_multitasking>:
  1014fe:	55                   	push   %ebp
  1014ff:	89 e5                	mov    %esp,%ebp
  101501:	53                   	push   %ebx
  101502:	83 ec 14             	sub    $0x14,%esp
  101505:	e8 b3 23 00 00       	call   1038bd <__x86.get_pc_thunk.bx>
  10150a:	81 c3 16 2e 00 00    	add    $0x2e16,%ebx
  101510:	8b 45 08             	mov    0x8(%ebp),%eax
  101513:	8b 40 14             	mov    0x14(%eax),%eax
  101516:	85 c0                	test   %eax,%eax
  101518:	75 26                	jne    101540 <init_multitasking+0x42>
  10151a:	83 ec 0c             	sub    $0xc,%esp
  10151d:	8d 83 d3 cf ff ff    	lea    -0x302d(%ebx),%eax
  101523:	50                   	push   %eax
  101524:	e8 16 fe ff ff       	call   10133f <init_task>
  101529:	83 c4 10             	add    $0x10,%esp
  10152c:	83 ec 0c             	sub    $0xc,%esp
  10152f:	8d 83 f9 cf ff ff    	lea    -0x3007(%ebx),%eax
  101535:	50                   	push   %eax
  101536:	e8 04 fe ff ff       	call   10133f <init_task>
  10153b:	83 c4 10             	add    $0x10,%esp
  10153e:	eb 3c                	jmp    10157c <init_multitasking+0x7e>
  101540:	8b 45 08             	mov    0x8(%ebp),%eax
  101543:	8b 40 18             	mov    0x18(%eax),%eax
  101546:	89 45 f0             	mov    %eax,-0x10(%ebp)
  101549:	c7 45 f4 00 00 00 00 	movl   $0x0,-0xc(%ebp)
  101550:	eb 1f                	jmp    101571 <init_multitasking+0x73>
  101552:	8b 45 f4             	mov    -0xc(%ebp),%eax
  101555:	c1 e0 04             	shl    $0x4,%eax
  101558:	89 c2                	mov    %eax,%edx
  10155a:	8b 45 f0             	mov    -0x10(%ebp),%eax
  10155d:	01 d0                	add    %edx,%eax
  10155f:	8b 00                	mov    (%eax),%eax
  101561:	83 ec 0c             	sub    $0xc,%esp
  101564:	50                   	push   %eax
  101565:	e8 bf fe ff ff       	call   101429 <init_elf>
  10156a:	83 c4 10             	add    $0x10,%esp
  10156d:	83 45 f4 01          	addl   $0x1,-0xc(%ebp)
  101571:	8b 45 08             	mov    0x8(%ebp),%eax
  101574:	8b 40 14             	mov    0x14(%eax),%eax
  101577:	39 45 f4             	cmp    %eax,-0xc(%ebp)
  10157a:	7c d6                	jl     101552 <init_multitasking+0x54>
  10157c:	90                   	nop
  10157d:	8b 5d fc             	mov    -0x4(%ebp),%ebx
  101580:	c9                   	leave  
  101581:	c3                   	ret    

00101582 <schedule>:
  101582:	55                   	push   %ebp
  101583:	89 e5                	mov    %esp,%ebp
  101585:	e8 37 23 00 00       	call   1038c1 <__x86.get_pc_thunk.ax>
  10158a:	05 96 2d 00 00       	add    $0x2d96,%eax
  10158f:	8b 90 20 3d 00 00    	mov    0x3d20(%eax),%edx
  101595:	85 d2                	test   %edx,%edx
  101597:	74 0b                	je     1015a4 <schedule+0x22>
  101599:	8b 90 20 3d 00 00    	mov    0x3d20(%eax),%edx
  10159f:	8b 4d 08             	mov    0x8(%ebp),%ecx
  1015a2:	89 0a                	mov    %ecx,(%edx)
  1015a4:	8b 90 20 3d 00 00    	mov    0x3d20(%eax),%edx
  1015aa:	85 d2                	test   %edx,%edx
  1015ac:	75 0e                	jne    1015bc <schedule+0x3a>
  1015ae:	8b 90 1c 3d 00 00    	mov    0x3d1c(%eax),%edx
  1015b4:	89 90 20 3d 00 00    	mov    %edx,0x3d20(%eax)
  1015ba:	eb 25                	jmp    1015e1 <schedule+0x5f>
  1015bc:	8b 90 20 3d 00 00    	mov    0x3d20(%eax),%edx
  1015c2:	8b 52 04             	mov    0x4(%edx),%edx
  1015c5:	89 90 20 3d 00 00    	mov    %edx,0x3d20(%eax)
  1015cb:	8b 90 20 3d 00 00    	mov    0x3d20(%eax),%edx
  1015d1:	85 d2                	test   %edx,%edx
  1015d3:	75 0c                	jne    1015e1 <schedule+0x5f>
  1015d5:	8b 90 1c 3d 00 00    	mov    0x3d1c(%eax),%edx
  1015db:	89 90 20 3d 00 00    	mov    %edx,0x3d20(%eax)
  1015e1:	8b 80 20 3d 00 00    	mov    0x3d20(%eax),%eax
  1015e7:	8b 00                	mov    (%eax),%eax
  1015e9:	89 45 08             	mov    %eax,0x8(%ebp)
  1015ec:	8b 45 08             	mov    0x8(%ebp),%eax
  1015ef:	5d                   	pop    %ebp
  1015f0:	c3                   	ret    

001015f1 <stringPutc>:
  1015f1:	55                   	push   %ebp
  1015f2:	89 e5                	mov    %esp,%ebp
  1015f4:	83 ec 14             	sub    $0x14,%esp
  1015f7:	e8 c5 22 00 00       	call   1038c1 <__x86.get_pc_thunk.ax>
  1015fc:	05 24 2d 00 00       	add    $0x2d24,%eax
  101601:	8b 45 0c             	mov    0xc(%ebp),%eax
  101604:	88 45 ec             	mov    %al,-0x14(%ebp)
  101607:	8b 45 08             	mov    0x8(%ebp),%eax
  10160a:	89 45 fc             	mov    %eax,-0x4(%ebp)
  10160d:	8b 45 fc             	mov    -0x4(%ebp),%eax
  101610:	8b 10                	mov    (%eax),%edx
  101612:	8b 45 fc             	mov    -0x4(%ebp),%eax
  101615:	8b 40 04             	mov    0x4(%eax),%eax
  101618:	01 c2                	add    %eax,%edx
  10161a:	0f b6 45 ec          	movzbl -0x14(%ebp),%eax
  10161e:	88 02                	mov    %al,(%edx)
  101620:	8b 45 fc             	mov    -0x4(%ebp),%eax
  101623:	8b 40 04             	mov    0x4(%eax),%eax
  101626:	8d 50 01             	lea    0x1(%eax),%edx
  101629:	8b 45 fc             	mov    -0x4(%ebp),%eax
  10162c:	89 50 04             	mov    %edx,0x4(%eax)
  10162f:	8b 45 fc             	mov    -0x4(%ebp),%eax
  101632:	8b 10                	mov    (%eax),%edx
  101634:	8b 45 fc             	mov    -0x4(%ebp),%eax
  101637:	8b 40 04             	mov    0x4(%eax),%eax
  10163a:	01 d0                	add    %edx,%eax
  10163c:	c6 00 00             	movb   $0x0,(%eax)
  10163f:	90                   	nop
  101640:	c9                   	leave  
  101641:	c3                   	ret    

00101642 <getColor>:
  101642:	55                   	push   %ebp
  101643:	89 e5                	mov    %esp,%ebp
  101645:	e8 77 22 00 00       	call   1038c1 <__x86.get_pc_thunk.ax>
  10164a:	05 d6 2c 00 00       	add    $0x2cd6,%eax
  10164f:	8b 90 24 3d 00 00    	mov    0x3d24(%eax),%edx
  101655:	c1 e2 04             	shl    $0x4,%edx
  101658:	8b 80 fc ff ff ff    	mov    -0x4(%eax),%eax
  10165e:	01 d0                	add    %edx,%eax
  101660:	5d                   	pop    %ebp
  101661:	c3                   	ret    

00101662 <setBgColor>:
  101662:	55                   	push   %ebp
  101663:	89 e5                	mov    %esp,%ebp
  101665:	e8 57 22 00 00       	call   1038c1 <__x86.get_pc_thunk.ax>
  10166a:	05 b6 2c 00 00       	add    $0x2cb6,%eax
  10166f:	8b 55 08             	mov    0x8(%ebp),%edx
  101672:	89 90 24 3d 00 00    	mov    %edx,0x3d24(%eax)
  101678:	90                   	nop
  101679:	5d                   	pop    %ebp
  10167a:	c3                   	ret    

0010167b <setTextColor>:
  10167b:	55                   	push   %ebp
  10167c:	89 e5                	mov    %esp,%ebp
  10167e:	e8 3e 22 00 00       	call   1038c1 <__x86.get_pc_thunk.ax>
  101683:	05 9d 2c 00 00       	add    $0x2c9d,%eax
  101688:	8b 55 08             	mov    0x8(%ebp),%edx
  10168b:	89 90 fc ff ff ff    	mov    %edx,-0x4(%eax)
  101691:	90                   	nop
  101692:	5d                   	pop    %ebp
  101693:	c3                   	ret    

00101694 <clearScreen>:
  101694:	55                   	push   %ebp
  101695:	89 e5                	mov    %esp,%ebp
  101697:	83 ec 10             	sub    $0x10,%esp
  10169a:	e8 22 22 00 00       	call   1038c1 <__x86.get_pc_thunk.ax>
  10169f:	05 81 2c 00 00       	add    $0x2c81,%eax
  1016a4:	c6 45 fa 00          	movb   $0x0,-0x6(%ebp)
  1016a8:	c6 45 fb 00          	movb   $0x0,-0x5(%ebp)
  1016ac:	c7 45 fc 00 00 00 00 	movl   $0x0,-0x4(%ebp)
  1016b3:	eb 18                	jmp    1016cd <clearScreen+0x39>
  1016b5:	8b 90 f8 ff ff ff    	mov    -0x8(%eax),%edx
  1016bb:	8b 4d fc             	mov    -0x4(%ebp),%ecx
  1016be:	01 c9                	add    %ecx,%ecx
  1016c0:	01 d1                	add    %edx,%ecx
  1016c2:	0f b7 55 fa          	movzwl -0x6(%ebp),%edx
  1016c6:	66 89 11             	mov    %dx,(%ecx)
  1016c9:	83 45 fc 01          	addl   $0x1,-0x4(%ebp)
  1016cd:	81 7d fc d0 07 00 00 	cmpl   $0x7d0,-0x4(%ebp)
  1016d4:	7e df                	jle    1016b5 <clearScreen+0x21>
  1016d6:	90                   	nop
  1016d7:	90                   	nop
  1016d8:	c9                   	leave  
  1016d9:	c3                   	ret    

001016da <displaycursor>:
  1016da:	55                   	push   %ebp
  1016db:	89 e5                	mov    %esp,%ebp
  1016dd:	53                   	push   %ebx
  1016de:	83 ec 14             	sub    $0x14,%esp
  1016e1:	e8 d7 21 00 00       	call   1038bd <__x86.get_pc_thunk.bx>
  1016e6:	81 c3 3a 2c 00 00    	add    $0x2c3a,%ebx
  1016ec:	8b 45 0c             	mov    0xc(%ebp),%eax
  1016ef:	89 c2                	mov    %eax,%edx
  1016f1:	89 d0                	mov    %edx,%eax
  1016f3:	c1 e0 02             	shl    $0x2,%eax
  1016f6:	01 d0                	add    %edx,%eax
  1016f8:	c1 e0 04             	shl    $0x4,%eax
  1016fb:	89 c2                	mov    %eax,%edx
  1016fd:	8b 45 08             	mov    0x8(%ebp),%eax
  101700:	01 d0                	add    %edx,%eax
  101702:	66 89 45 f6          	mov    %ax,-0xa(%ebp)
  101706:	83 ec 08             	sub    $0x8,%esp
  101709:	6a 0f                	push   $0xf
  10170b:	68 d4 03 00 00       	push   $0x3d4
  101710:	e8 9b f4 ff ff       	call   100bb0 <outb>
  101715:	83 c4 10             	add    $0x10,%esp
  101718:	0f b7 45 f6          	movzwl -0xa(%ebp),%eax
  10171c:	0f b6 c0             	movzbl %al,%eax
  10171f:	83 ec 08             	sub    $0x8,%esp
  101722:	50                   	push   %eax
  101723:	68 d5 03 00 00       	push   $0x3d5
  101728:	e8 83 f4 ff ff       	call   100bb0 <outb>
  10172d:	83 c4 10             	add    $0x10,%esp
  101730:	83 ec 08             	sub    $0x8,%esp
  101733:	6a 0e                	push   $0xe
  101735:	68 d4 03 00 00       	push   $0x3d4
  10173a:	e8 71 f4 ff ff       	call   100bb0 <outb>
  10173f:	83 c4 10             	add    $0x10,%esp
  101742:	0f b7 45 f6          	movzwl -0xa(%ebp),%eax
  101746:	66 c1 e8 08          	shr    $0x8,%ax
  10174a:	0f b6 c0             	movzbl %al,%eax
  10174d:	83 ec 08             	sub    $0x8,%esp
  101750:	50                   	push   %eax
  101751:	68 d5 03 00 00       	push   $0x3d5
  101756:	e8 55 f4 ff ff       	call   100bb0 <outb>
  10175b:	83 c4 10             	add    $0x10,%esp
  10175e:	90                   	nop
  10175f:	8b 5d fc             	mov    -0x4(%ebp),%ebx
  101762:	c9                   	leave  
  101763:	c3                   	ret    

00101764 <puts>:
  101764:	55                   	push   %ebp
  101765:	89 e5                	mov    %esp,%ebp
  101767:	53                   	push   %ebx
  101768:	83 ec 14             	sub    $0x14,%esp
  10176b:	e8 4d 21 00 00       	call   1038bd <__x86.get_pc_thunk.bx>
  101770:	81 c3 b0 2b 00 00    	add    $0x2bb0,%ebx
  101776:	c7 45 f4 00 00 00 00 	movl   $0x0,-0xc(%ebp)
  10177d:	e9 0b 02 00 00       	jmp    10198d <puts+0x229>
  101782:	8b 55 f4             	mov    -0xc(%ebp),%edx
  101785:	8b 45 08             	mov    0x8(%ebp),%eax
  101788:	01 d0                	add    %edx,%eax
  10178a:	0f b6 00             	movzbl (%eax),%eax
  10178d:	3c 0a                	cmp    $0xa,%al
  10178f:	75 0e                	jne    10179f <puts+0x3b>
  101791:	83 45 f4 01          	addl   $0x1,-0xc(%ebp)
  101795:	e8 3a 04 00 00       	call   101bd4 <newLine>
  10179a:	e9 ea 01 00 00       	jmp    101989 <puts+0x225>
  10179f:	8b 55 f4             	mov    -0xc(%ebp),%edx
  1017a2:	8b 45 08             	mov    0x8(%ebp),%eax
  1017a5:	01 d0                	add    %edx,%eax
  1017a7:	0f b6 00             	movzbl (%eax),%eax
  1017aa:	3c 08                	cmp    $0x8,%al
  1017ac:	0f 85 04 01 00 00    	jne    1018b6 <puts+0x152>
  1017b2:	83 45 f4 01          	addl   $0x1,-0xc(%ebp)
  1017b6:	8b 83 28 3d 00 00    	mov    0x3d28(%ebx),%eax
  1017bc:	85 c0                	test   %eax,%eax
  1017be:	75 25                	jne    1017e5 <puts+0x81>
  1017c0:	8b 83 2c 3d 00 00    	mov    0x3d2c(%ebx),%eax
  1017c6:	85 c0                	test   %eax,%eax
  1017c8:	7e 1b                	jle    1017e5 <puts+0x81>
  1017ca:	c7 83 28 3d 00 00 4f 	movl   $0x4f,0x3d28(%ebx)
  1017d1:	00 00 00 
  1017d4:	8b 83 2c 3d 00 00    	mov    0x3d2c(%ebx),%eax
  1017da:	83 e8 01             	sub    $0x1,%eax
  1017dd:	89 83 2c 3d 00 00    	mov    %eax,0x3d2c(%ebx)
  1017e3:	eb 19                	jmp    1017fe <puts+0x9a>
  1017e5:	8b 83 28 3d 00 00    	mov    0x3d28(%ebx),%eax
  1017eb:	85 c0                	test   %eax,%eax
  1017ed:	7e 59                	jle    101848 <puts+0xe4>
  1017ef:	8b 83 28 3d 00 00    	mov    0x3d28(%ebx),%eax
  1017f5:	83 e8 01             	sub    $0x1,%eax
  1017f8:	89 83 28 3d 00 00    	mov    %eax,0x3d28(%ebx)
  1017fe:	eb 48                	jmp    101848 <puts+0xe4>
  101800:	8b 83 28 3d 00 00    	mov    0x3d28(%ebx),%eax
  101806:	85 c0                	test   %eax,%eax
  101808:	75 25                	jne    10182f <puts+0xcb>
  10180a:	8b 83 2c 3d 00 00    	mov    0x3d2c(%ebx),%eax
  101810:	85 c0                	test   %eax,%eax
  101812:	7e 1b                	jle    10182f <puts+0xcb>
  101814:	c7 83 28 3d 00 00 4f 	movl   $0x4f,0x3d28(%ebx)
  10181b:	00 00 00 
  10181e:	8b 83 2c 3d 00 00    	mov    0x3d2c(%ebx),%eax
  101824:	83 e8 01             	sub    $0x1,%eax
  101827:	89 83 2c 3d 00 00    	mov    %eax,0x3d2c(%ebx)
  10182d:	eb 19                	jmp    101848 <puts+0xe4>
  10182f:	8b 83 28 3d 00 00    	mov    0x3d28(%ebx),%eax
  101835:	85 c0                	test   %eax,%eax
  101837:	7e 0f                	jle    101848 <puts+0xe4>
  101839:	8b 83 28 3d 00 00    	mov    0x3d28(%ebx),%eax
  10183f:	83 e8 01             	sub    $0x1,%eax
  101842:	89 83 28 3d 00 00    	mov    %eax,0x3d28(%ebx)
  101848:	8b 8b f8 ff ff ff    	mov    -0x8(%ebx),%ecx
  10184e:	8b 93 2c 3d 00 00    	mov    0x3d2c(%ebx),%edx
  101854:	89 d0                	mov    %edx,%eax
  101856:	c1 e0 02             	shl    $0x2,%eax
  101859:	01 d0                	add    %edx,%eax
  10185b:	c1 e0 04             	shl    $0x4,%eax
  10185e:	89 c2                	mov    %eax,%edx
  101860:	8b 83 28 3d 00 00    	mov    0x3d28(%ebx),%eax
  101866:	01 d0                	add    %edx,%eax
  101868:	01 c0                	add    %eax,%eax
  10186a:	01 c8                	add    %ecx,%eax
  10186c:	0f b6 00             	movzbl (%eax),%eax
  10186f:	84 c0                	test   %al,%al
  101871:	75 0a                	jne    10187d <puts+0x119>
  101873:	8b 83 2c 3d 00 00    	mov    0x3d2c(%ebx),%eax
  101879:	85 c0                	test   %eax,%eax
  10187b:	79 83                	jns    101800 <puts+0x9c>
  10187d:	c6 45 ee 00          	movb   $0x0,-0x12(%ebp)
  101881:	c6 45 ef 00          	movb   $0x0,-0x11(%ebp)
  101885:	8b 8b f8 ff ff ff    	mov    -0x8(%ebx),%ecx
  10188b:	8b 93 2c 3d 00 00    	mov    0x3d2c(%ebx),%edx
  101891:	89 d0                	mov    %edx,%eax
  101893:	c1 e0 02             	shl    $0x2,%eax
  101896:	01 d0                	add    %edx,%eax
  101898:	c1 e0 04             	shl    $0x4,%eax
  10189b:	89 c2                	mov    %eax,%edx
  10189d:	8b 83 28 3d 00 00    	mov    0x3d28(%ebx),%eax
  1018a3:	01 d0                	add    %edx,%eax
  1018a5:	01 c0                	add    %eax,%eax
  1018a7:	8d 14 01             	lea    (%ecx,%eax,1),%edx
  1018aa:	0f b7 45 ee          	movzwl -0x12(%ebp),%eax
  1018ae:	66 89 02             	mov    %ax,(%edx)
  1018b1:	e9 d3 00 00 00       	jmp    101989 <puts+0x225>
  1018b6:	8b 55 f4             	mov    -0xc(%ebp),%edx
  1018b9:	8b 45 08             	mov    0x8(%ebp),%eax
  1018bc:	01 d0                	add    %edx,%eax
  1018be:	0f b6 00             	movzbl (%eax),%eax
  1018c1:	3c 09                	cmp    $0x9,%al
  1018c3:	75 63                	jne    101928 <puts+0x1c4>
  1018c5:	c6 45 ec 20          	movb   $0x20,-0x14(%ebp)
  1018c9:	c6 45 ed 00          	movb   $0x0,-0x13(%ebp)
  1018cd:	c7 45 f0 00 00 00 00 	movl   $0x0,-0x10(%ebp)
  1018d4:	eb 3f                	jmp    101915 <puts+0x1b1>
  1018d6:	8b 8b f8 ff ff ff    	mov    -0x8(%ebx),%ecx
  1018dc:	8b 93 2c 3d 00 00    	mov    0x3d2c(%ebx),%edx
  1018e2:	89 d0                	mov    %edx,%eax
  1018e4:	c1 e0 02             	shl    $0x2,%eax
  1018e7:	01 d0                	add    %edx,%eax
  1018e9:	c1 e0 04             	shl    $0x4,%eax
  1018ec:	89 c2                	mov    %eax,%edx
  1018ee:	8b 83 28 3d 00 00    	mov    0x3d28(%ebx),%eax
  1018f4:	01 d0                	add    %edx,%eax
  1018f6:	01 c0                	add    %eax,%eax
  1018f8:	8d 14 01             	lea    (%ecx,%eax,1),%edx
  1018fb:	0f b7 45 ec          	movzwl -0x14(%ebp),%eax
  1018ff:	66 89 02             	mov    %ax,(%edx)
  101902:	8b 83 28 3d 00 00    	mov    0x3d28(%ebx),%eax
  101908:	83 c0 01             	add    $0x1,%eax
  10190b:	89 83 28 3d 00 00    	mov    %eax,0x3d28(%ebx)
  101911:	83 45 f0 01          	addl   $0x1,-0x10(%ebp)
  101915:	83 7d f0 04          	cmpl   $0x4,-0x10(%ebp)
  101919:	7f 6e                	jg     101989 <puts+0x225>
  10191b:	8b 83 28 3d 00 00    	mov    0x3d28(%ebx),%eax
  101921:	83 f8 4f             	cmp    $0x4f,%eax
  101924:	7e b0                	jle    1018d6 <puts+0x172>
  101926:	eb 61                	jmp    101989 <puts+0x225>
  101928:	8b 55 f4             	mov    -0xc(%ebp),%edx
  10192b:	8b 45 08             	mov    0x8(%ebp),%eax
  10192e:	01 d0                	add    %edx,%eax
  101930:	0f b6 00             	movzbl (%eax),%eax
  101933:	88 45 ea             	mov    %al,-0x16(%ebp)
  101936:	e8 07 fd ff ff       	call   101642 <getColor>
  10193b:	88 45 eb             	mov    %al,-0x15(%ebp)
  10193e:	8b 8b f8 ff ff ff    	mov    -0x8(%ebx),%ecx
  101944:	8b 93 2c 3d 00 00    	mov    0x3d2c(%ebx),%edx
  10194a:	89 d0                	mov    %edx,%eax
  10194c:	c1 e0 02             	shl    $0x2,%eax
  10194f:	01 d0                	add    %edx,%eax
  101951:	c1 e0 04             	shl    $0x4,%eax
  101954:	89 c2                	mov    %eax,%edx
  101956:	8b 83 28 3d 00 00    	mov    0x3d28(%ebx),%eax
  10195c:	01 d0                	add    %edx,%eax
  10195e:	01 c0                	add    %eax,%eax
  101960:	8d 14 01             	lea    (%ecx,%eax,1),%edx
  101963:	0f b7 45 ea          	movzwl -0x16(%ebp),%eax
  101967:	66 89 02             	mov    %ax,(%edx)
  10196a:	8b 83 28 3d 00 00    	mov    0x3d28(%ebx),%eax
  101970:	83 c0 01             	add    $0x1,%eax
  101973:	89 83 28 3d 00 00    	mov    %eax,0x3d28(%ebx)
  101979:	8b 83 28 3d 00 00    	mov    0x3d28(%ebx),%eax
  10197f:	83 f8 4f             	cmp    $0x4f,%eax
  101982:	7e 05                	jle    101989 <puts+0x225>
  101984:	e8 4b 02 00 00       	call   101bd4 <newLine>
  101989:	83 45 f4 01          	addl   $0x1,-0xc(%ebp)
  10198d:	8b 55 f4             	mov    -0xc(%ebp),%edx
  101990:	8b 45 08             	mov    0x8(%ebp),%eax
  101993:	01 d0                	add    %edx,%eax
  101995:	0f b6 00             	movzbl (%eax),%eax
  101998:	84 c0                	test   %al,%al
  10199a:	0f 85 e2 fd ff ff    	jne    101782 <puts+0x1e>
  1019a0:	8b 83 2c 3d 00 00    	mov    0x3d2c(%ebx),%eax
  1019a6:	83 f8 18             	cmp    $0x18,%eax
  1019a9:	75 05                	jne    1019b0 <puts+0x24c>
  1019ab:	e8 4d 02 00 00       	call   101bfd <scroll>
  1019b0:	90                   	nop
  1019b1:	83 c4 14             	add    $0x14,%esp
  1019b4:	5b                   	pop    %ebx
  1019b5:	5d                   	pop    %ebp
  1019b6:	c3                   	ret    

001019b7 <putc>:
  1019b7:	55                   	push   %ebp
  1019b8:	89 e5                	mov    %esp,%ebp
  1019ba:	53                   	push   %ebx
  1019bb:	83 ec 24             	sub    $0x24,%esp
  1019be:	e8 fa 1e 00 00       	call   1038bd <__x86.get_pc_thunk.bx>
  1019c3:	81 c3 5d 29 00 00    	add    $0x295d,%ebx
  1019c9:	8b 45 08             	mov    0x8(%ebp),%eax
  1019cc:	88 45 e4             	mov    %al,-0x1c(%ebp)
  1019cf:	80 7d e4 0a          	cmpb   $0xa,-0x1c(%ebp)
  1019d3:	75 1e                	jne    1019f3 <putc+0x3c>
  1019d5:	8b 83 2c 3d 00 00    	mov    0x3d2c(%ebx),%eax
  1019db:	83 c0 01             	add    $0x1,%eax
  1019de:	89 83 2c 3d 00 00    	mov    %eax,0x3d2c(%ebx)
  1019e4:	c7 83 28 3d 00 00 00 	movl   $0x0,0x3d28(%ebx)
  1019eb:	00 00 00 
  1019ee:	e9 bd 01 00 00       	jmp    101bb0 <putc+0x1f9>
  1019f3:	80 7d e4 08          	cmpb   $0x8,-0x1c(%ebp)
  1019f7:	0f 85 00 01 00 00    	jne    101afd <putc+0x146>
  1019fd:	8b 83 28 3d 00 00    	mov    0x3d28(%ebx),%eax
  101a03:	85 c0                	test   %eax,%eax
  101a05:	75 25                	jne    101a2c <putc+0x75>
  101a07:	8b 83 2c 3d 00 00    	mov    0x3d2c(%ebx),%eax
  101a0d:	85 c0                	test   %eax,%eax
  101a0f:	7e 1b                	jle    101a2c <putc+0x75>
  101a11:	c7 83 28 3d 00 00 4f 	movl   $0x4f,0x3d28(%ebx)
  101a18:	00 00 00 
  101a1b:	8b 83 2c 3d 00 00    	mov    0x3d2c(%ebx),%eax
  101a21:	83 e8 01             	sub    $0x1,%eax
  101a24:	89 83 2c 3d 00 00    	mov    %eax,0x3d2c(%ebx)
  101a2a:	eb 19                	jmp    101a45 <putc+0x8e>
  101a2c:	8b 83 28 3d 00 00    	mov    0x3d28(%ebx),%eax
  101a32:	85 c0                	test   %eax,%eax
  101a34:	7e 59                	jle    101a8f <putc+0xd8>
  101a36:	8b 83 28 3d 00 00    	mov    0x3d28(%ebx),%eax
  101a3c:	83 e8 01             	sub    $0x1,%eax
  101a3f:	89 83 28 3d 00 00    	mov    %eax,0x3d28(%ebx)
  101a45:	eb 48                	jmp    101a8f <putc+0xd8>
  101a47:	8b 83 28 3d 00 00    	mov    0x3d28(%ebx),%eax
  101a4d:	85 c0                	test   %eax,%eax
  101a4f:	75 25                	jne    101a76 <putc+0xbf>
  101a51:	8b 83 2c 3d 00 00    	mov    0x3d2c(%ebx),%eax
  101a57:	85 c0                	test   %eax,%eax
  101a59:	7e 1b                	jle    101a76 <putc+0xbf>
  101a5b:	c7 83 28 3d 00 00 4f 	movl   $0x4f,0x3d28(%ebx)
  101a62:	00 00 00 
  101a65:	8b 83 2c 3d 00 00    	mov    0x3d2c(%ebx),%eax
  101a6b:	83 e8 01             	sub    $0x1,%eax
  101a6e:	89 83 2c 3d 00 00    	mov    %eax,0x3d2c(%ebx)
  101a74:	eb 19                	jmp    101a8f <putc+0xd8>
  101a76:	8b 83 28 3d 00 00    	mov    0x3d28(%ebx),%eax
  101a7c:	85 c0                	test   %eax,%eax
  101a7e:	7e 0f                	jle    101a8f <putc+0xd8>
  101a80:	8b 83 28 3d 00 00    	mov    0x3d28(%ebx),%eax
  101a86:	83 e8 01             	sub    $0x1,%eax
  101a89:	89 83 28 3d 00 00    	mov    %eax,0x3d28(%ebx)
  101a8f:	8b 8b f8 ff ff ff    	mov    -0x8(%ebx),%ecx
  101a95:	8b 93 2c 3d 00 00    	mov    0x3d2c(%ebx),%edx
  101a9b:	89 d0                	mov    %edx,%eax
  101a9d:	c1 e0 02             	shl    $0x2,%eax
  101aa0:	01 d0                	add    %edx,%eax
  101aa2:	c1 e0 04             	shl    $0x4,%eax
  101aa5:	89 c2                	mov    %eax,%edx
  101aa7:	8b 83 28 3d 00 00    	mov    0x3d28(%ebx),%eax
  101aad:	01 d0                	add    %edx,%eax
  101aaf:	01 c0                	add    %eax,%eax
  101ab1:	01 c8                	add    %ecx,%eax
  101ab3:	0f b6 00             	movzbl (%eax),%eax
  101ab6:	84 c0                	test   %al,%al
  101ab8:	75 0a                	jne    101ac4 <putc+0x10d>
  101aba:	8b 83 2c 3d 00 00    	mov    0x3d2c(%ebx),%eax
  101ac0:	85 c0                	test   %eax,%eax
  101ac2:	79 83                	jns    101a47 <putc+0x90>
  101ac4:	c6 45 f2 00          	movb   $0x0,-0xe(%ebp)
  101ac8:	c6 45 f3 00          	movb   $0x0,-0xd(%ebp)
  101acc:	8b 8b f8 ff ff ff    	mov    -0x8(%ebx),%ecx
  101ad2:	8b 93 2c 3d 00 00    	mov    0x3d2c(%ebx),%edx
  101ad8:	89 d0                	mov    %edx,%eax
  101ada:	c1 e0 02             	shl    $0x2,%eax
  101add:	01 d0                	add    %edx,%eax
  101adf:	c1 e0 04             	shl    $0x4,%eax
  101ae2:	89 c2                	mov    %eax,%edx
  101ae4:	8b 83 28 3d 00 00    	mov    0x3d28(%ebx),%eax
  101aea:	01 d0                	add    %edx,%eax
  101aec:	01 c0                	add    %eax,%eax
  101aee:	8d 14 01             	lea    (%ecx,%eax,1),%edx
  101af1:	0f b7 45 f2          	movzwl -0xe(%ebp),%eax
  101af5:	66 89 02             	mov    %ax,(%edx)
  101af8:	e9 b3 00 00 00       	jmp    101bb0 <putc+0x1f9>
  101afd:	80 7d e4 09          	cmpb   $0x9,-0x1c(%ebp)
  101b01:	75 63                	jne    101b66 <putc+0x1af>
  101b03:	c6 45 f0 20          	movb   $0x20,-0x10(%ebp)
  101b07:	c6 45 f1 00          	movb   $0x0,-0xf(%ebp)
  101b0b:	c7 45 f4 00 00 00 00 	movl   $0x0,-0xc(%ebp)
  101b12:	eb 3f                	jmp    101b53 <putc+0x19c>
  101b14:	8b 8b f8 ff ff ff    	mov    -0x8(%ebx),%ecx
  101b1a:	8b 93 2c 3d 00 00    	mov    0x3d2c(%ebx),%edx
  101b20:	89 d0                	mov    %edx,%eax
  101b22:	c1 e0 02             	shl    $0x2,%eax
  101b25:	01 d0                	add    %edx,%eax
  101b27:	c1 e0 04             	shl    $0x4,%eax
  101b2a:	89 c2                	mov    %eax,%edx
  101b2c:	8b 83 28 3d 00 00    	mov    0x3d28(%ebx),%eax
  101b32:	01 d0                	add    %edx,%eax
  101b34:	01 c0                	add    %eax,%eax
  101b36:	8d 14 01             	lea    (%ecx,%eax,1),%edx
  101b39:	0f b7 45 f0          	movzwl -0x10(%ebp),%eax
  101b3d:	66 89 02             	mov    %ax,(%edx)
  101b40:	8b 83 28 3d 00 00    	mov    0x3d28(%ebx),%eax
  101b46:	83 c0 01             	add    $0x1,%eax
  101b49:	89 83 28 3d 00 00    	mov    %eax,0x3d28(%ebx)
  101b4f:	83 45 f4 01          	addl   $0x1,-0xc(%ebp)
  101b53:	83 7d f4 04          	cmpl   $0x4,-0xc(%ebp)
  101b57:	7f 57                	jg     101bb0 <putc+0x1f9>
  101b59:	8b 83 28 3d 00 00    	mov    0x3d28(%ebx),%eax
  101b5f:	83 f8 4f             	cmp    $0x4f,%eax
  101b62:	7e b0                	jle    101b14 <putc+0x15d>
  101b64:	eb 4a                	jmp    101bb0 <putc+0x1f9>
  101b66:	0f b6 45 e4          	movzbl -0x1c(%ebp),%eax
  101b6a:	88 45 ee             	mov    %al,-0x12(%ebp)
  101b6d:	e8 d0 fa ff ff       	call   101642 <getColor>
  101b72:	88 45 ef             	mov    %al,-0x11(%ebp)
  101b75:	8b 8b f8 ff ff ff    	mov    -0x8(%ebx),%ecx
  101b7b:	8b 93 2c 3d 00 00    	mov    0x3d2c(%ebx),%edx
  101b81:	89 d0                	mov    %edx,%eax
  101b83:	c1 e0 02             	shl    $0x2,%eax
  101b86:	01 d0                	add    %edx,%eax
  101b88:	c1 e0 04             	shl    $0x4,%eax
  101b8b:	89 c2                	mov    %eax,%edx
  101b8d:	8b 83 28 3d 00 00    	mov    0x3d28(%ebx),%eax
  101b93:	01 d0                	add    %edx,%eax
  101b95:	01 c0                	add    %eax,%eax
  101b97:	8d 14 01             	lea    (%ecx,%eax,1),%edx
  101b9a:	0f b7 45 ee          	movzwl -0x12(%ebp),%eax
  101b9e:	66 89 02             	mov    %ax,(%edx)
  101ba1:	8b 83 28 3d 00 00    	mov    0x3d28(%ebx),%eax
  101ba7:	83 c0 01             	add    $0x1,%eax
  101baa:	89 83 28 3d 00 00    	mov    %eax,0x3d28(%ebx)
  101bb0:	8b 83 2c 3d 00 00    	mov    0x3d2c(%ebx),%eax
  101bb6:	83 f8 18             	cmp    $0x18,%eax
  101bb9:	74 0d                	je     101bc8 <putc+0x211>
  101bbb:	8b 83 28 3d 00 00    	mov    0x3d28(%ebx),%eax
  101bc1:	3d 7f 07 00 00       	cmp    $0x77f,%eax
  101bc6:	7e 05                	jle    101bcd <putc+0x216>
  101bc8:	e8 30 00 00 00       	call   101bfd <scroll>
  101bcd:	90                   	nop
  101bce:	83 c4 24             	add    $0x24,%esp
  101bd1:	5b                   	pop    %ebx
  101bd2:	5d                   	pop    %ebp
  101bd3:	c3                   	ret    

00101bd4 <newLine>:
  101bd4:	55                   	push   %ebp
  101bd5:	89 e5                	mov    %esp,%ebp
  101bd7:	e8 e5 1c 00 00       	call   1038c1 <__x86.get_pc_thunk.ax>
  101bdc:	05 44 27 00 00       	add    $0x2744,%eax
  101be1:	8b 90 2c 3d 00 00    	mov    0x3d2c(%eax),%edx
  101be7:	83 c2 01             	add    $0x1,%edx
  101bea:	89 90 2c 3d 00 00    	mov    %edx,0x3d2c(%eax)
  101bf0:	c7 80 28 3d 00 00 00 	movl   $0x0,0x3d28(%eax)
  101bf7:	00 00 00 
  101bfa:	90                   	nop
  101bfb:	5d                   	pop    %ebp
  101bfc:	c3                   	ret    

00101bfd <scroll>:
  101bfd:	55                   	push   %ebp
  101bfe:	89 e5                	mov    %esp,%ebp
  101c00:	56                   	push   %esi
  101c01:	53                   	push   %ebx
  101c02:	83 ec 10             	sub    $0x10,%esp
  101c05:	e8 bb 1c 00 00       	call   1038c5 <__x86.get_pc_thunk.dx>
  101c0a:	81 c2 16 27 00 00    	add    $0x2716,%edx
  101c10:	c7 45 f4 00 00 00 00 	movl   $0x0,-0xc(%ebp)
  101c17:	eb 5d                	jmp    101c76 <scroll+0x79>
  101c19:	c7 45 f0 00 00 00 00 	movl   $0x0,-0x10(%ebp)
  101c20:	eb 4a                	jmp    101c6c <scroll+0x6f>
  101c22:	8b 9a f8 ff ff ff    	mov    -0x8(%edx),%ebx
  101c28:	8b 45 f4             	mov    -0xc(%ebp),%eax
  101c2b:	8d 48 01             	lea    0x1(%eax),%ecx
  101c2e:	89 c8                	mov    %ecx,%eax
  101c30:	c1 e0 02             	shl    $0x2,%eax
  101c33:	01 c8                	add    %ecx,%eax
  101c35:	c1 e0 04             	shl    $0x4,%eax
  101c38:	89 c1                	mov    %eax,%ecx
  101c3a:	8b 45 f0             	mov    -0x10(%ebp),%eax
  101c3d:	01 c8                	add    %ecx,%eax
  101c3f:	01 c0                	add    %eax,%eax
  101c41:	01 c3                	add    %eax,%ebx
  101c43:	8b b2 f8 ff ff ff    	mov    -0x8(%edx),%esi
  101c49:	8b 4d f4             	mov    -0xc(%ebp),%ecx
  101c4c:	89 c8                	mov    %ecx,%eax
  101c4e:	c1 e0 02             	shl    $0x2,%eax
  101c51:	01 c8                	add    %ecx,%eax
  101c53:	c1 e0 04             	shl    $0x4,%eax
  101c56:	89 c1                	mov    %eax,%ecx
  101c58:	8b 45 f0             	mov    -0x10(%ebp),%eax
  101c5b:	01 c8                	add    %ecx,%eax
  101c5d:	01 c0                	add    %eax,%eax
  101c5f:	8d 0c 06             	lea    (%esi,%eax,1),%ecx
  101c62:	0f b7 03             	movzwl (%ebx),%eax
  101c65:	66 89 01             	mov    %ax,(%ecx)
  101c68:	83 45 f0 01          	addl   $0x1,-0x10(%ebp)
  101c6c:	83 7d f0 4f          	cmpl   $0x4f,-0x10(%ebp)
  101c70:	7e b0                	jle    101c22 <scroll+0x25>
  101c72:	83 45 f4 01          	addl   $0x1,-0xc(%ebp)
  101c76:	83 7d f4 17          	cmpl   $0x17,-0xc(%ebp)
  101c7a:	7e 9d                	jle    101c19 <scroll+0x1c>
  101c7c:	8b 82 2c 3d 00 00    	mov    0x3d2c(%edx),%eax
  101c82:	83 e8 01             	sub    $0x1,%eax
  101c85:	89 82 2c 3d 00 00    	mov    %eax,0x3d2c(%edx)
  101c8b:	c7 82 28 3d 00 00 00 	movl   $0x0,0x3d28(%edx)
  101c92:	00 00 00 
  101c95:	90                   	nop
  101c96:	83 c4 10             	add    $0x10,%esp
  101c99:	5b                   	pop    %ebx
  101c9a:	5e                   	pop    %esi
  101c9b:	5d                   	pop    %ebp
  101c9c:	c3                   	ret    

00101c9d <getLine>:
  101c9d:	55                   	push   %ebp
  101c9e:	89 e5                	mov    %esp,%ebp
  101ca0:	53                   	push   %ebx
  101ca1:	83 ec 10             	sub    $0x10,%esp
  101ca4:	e8 20 1c 00 00       	call   1038c9 <__x86.get_pc_thunk.cx>
  101ca9:	81 c1 77 26 00 00    	add    $0x2677,%ecx
  101caf:	c7 45 f8 00 00 00 00 	movl   $0x0,-0x8(%ebp)
  101cb6:	c7 45 f8 00 00 00 00 	movl   $0x0,-0x8(%ebp)
  101cbd:	eb 2f                	jmp    101cee <getLine+0x51>
  101cbf:	8b 99 f8 ff ff ff    	mov    -0x8(%ecx),%ebx
  101cc5:	8b 55 0c             	mov    0xc(%ebp),%edx
  101cc8:	89 d0                	mov    %edx,%eax
  101cca:	c1 e0 02             	shl    $0x2,%eax
  101ccd:	01 d0                	add    %edx,%eax
  101ccf:	c1 e0 04             	shl    $0x4,%eax
  101cd2:	89 c2                	mov    %eax,%edx
  101cd4:	8b 45 f8             	mov    -0x8(%ebp),%eax
  101cd7:	01 d0                	add    %edx,%eax
  101cd9:	01 c0                	add    %eax,%eax
  101cdb:	01 d8                	add    %ebx,%eax
  101cdd:	8b 5d f8             	mov    -0x8(%ebp),%ebx
  101ce0:	8b 55 08             	mov    0x8(%ebp),%edx
  101ce3:	01 da                	add    %ebx,%edx
  101ce5:	0f b6 00             	movzbl (%eax),%eax
  101ce8:	88 02                	mov    %al,(%edx)
  101cea:	83 45 f8 01          	addl   $0x1,-0x8(%ebp)
  101cee:	83 7d f8 4f          	cmpl   $0x4f,-0x8(%ebp)
  101cf2:	7e cb                	jle    101cbf <getLine+0x22>
  101cf4:	8b 55 f8             	mov    -0x8(%ebp),%edx
  101cf7:	8b 45 08             	mov    0x8(%ebp),%eax
  101cfa:	01 d0                	add    %edx,%eax
  101cfc:	c6 00 00             	movb   $0x0,(%eax)
  101cff:	90                   	nop
  101d00:	83 c4 10             	add    $0x10,%esp
  101d03:	5b                   	pop    %ebx
  101d04:	5d                   	pop    %ebp
  101d05:	c3                   	ret    

00101d06 <strlen>:
  101d06:	55                   	push   %ebp
  101d07:	89 e5                	mov    %esp,%ebp
  101d09:	83 ec 10             	sub    $0x10,%esp
  101d0c:	e8 b0 1b 00 00       	call   1038c1 <__x86.get_pc_thunk.ax>
  101d11:	05 0f 26 00 00       	add    $0x260f,%eax
  101d16:	c7 45 fc 00 00 00 00 	movl   $0x0,-0x4(%ebp)
  101d1d:	eb 08                	jmp    101d27 <strlen+0x21>
  101d1f:	83 45 08 01          	addl   $0x1,0x8(%ebp)
  101d23:	83 45 fc 01          	addl   $0x1,-0x4(%ebp)
  101d27:	8b 45 08             	mov    0x8(%ebp),%eax
  101d2a:	0f b6 00             	movzbl (%eax),%eax
  101d2d:	84 c0                	test   %al,%al
  101d2f:	75 ee                	jne    101d1f <strlen+0x19>
  101d31:	8b 45 fc             	mov    -0x4(%ebp),%eax
  101d34:	c9                   	leave  
  101d35:	c3                   	ret    

00101d36 <contains>:
  101d36:	55                   	push   %ebp
  101d37:	89 e5                	mov    %esp,%ebp
  101d39:	83 ec 10             	sub    $0x10,%esp
  101d3c:	e8 80 1b 00 00       	call   1038c1 <__x86.get_pc_thunk.ax>
  101d41:	05 df 25 00 00       	add    $0x25df,%eax
  101d46:	c7 45 fc 00 00 00 00 	movl   $0x0,-0x4(%ebp)
  101d4d:	eb 4c                	jmp    101d9b <contains+0x65>
  101d4f:	8b 45 08             	mov    0x8(%ebp),%eax
  101d52:	0f b6 00             	movzbl (%eax),%eax
  101d55:	84 c0                	test   %al,%al
  101d57:	74 42                	je     101d9b <contains+0x65>
  101d59:	ff 75 0c             	pushl  0xc(%ebp)
  101d5c:	e8 a5 ff ff ff       	call   101d06 <strlen>
  101d61:	83 c4 04             	add    $0x4,%esp
  101d64:	39 45 fc             	cmp    %eax,-0x4(%ebp)
  101d67:	7d 1d                	jge    101d86 <contains+0x50>
  101d69:	8b 45 08             	mov    0x8(%ebp),%eax
  101d6c:	0f b6 10             	movzbl (%eax),%edx
  101d6f:	8b 4d fc             	mov    -0x4(%ebp),%ecx
  101d72:	8b 45 0c             	mov    0xc(%ebp),%eax
  101d75:	01 c8                	add    %ecx,%eax
  101d77:	0f b6 00             	movzbl (%eax),%eax
  101d7a:	38 c2                	cmp    %al,%dl
  101d7c:	75 04                	jne    101d82 <contains+0x4c>
  101d7e:	83 45 fc 01          	addl   $0x1,-0x4(%ebp)
  101d82:	83 45 08 01          	addl   $0x1,0x8(%ebp)
  101d86:	ff 75 0c             	pushl  0xc(%ebp)
  101d89:	e8 78 ff ff ff       	call   101d06 <strlen>
  101d8e:	83 c4 04             	add    $0x4,%esp
  101d91:	39 45 fc             	cmp    %eax,-0x4(%ebp)
  101d94:	75 05                	jne    101d9b <contains+0x65>
  101d96:	8b 45 fc             	mov    -0x4(%ebp),%eax
  101d99:	eb 0f                	jmp    101daa <contains+0x74>
  101d9b:	8b 45 08             	mov    0x8(%ebp),%eax
  101d9e:	0f b6 00             	movzbl (%eax),%eax
  101da1:	84 c0                	test   %al,%al
  101da3:	75 aa                	jne    101d4f <contains+0x19>
  101da5:	b8 00 00 00 00       	mov    $0x0,%eax
  101daa:	c9                   	leave  
  101dab:	c3                   	ret    

00101dac <charinstring>:
  101dac:	55                   	push   %ebp
  101dad:	89 e5                	mov    %esp,%ebp
  101daf:	83 ec 14             	sub    $0x14,%esp
  101db2:	e8 0a 1b 00 00       	call   1038c1 <__x86.get_pc_thunk.ax>
  101db7:	05 69 25 00 00       	add    $0x2569,%eax
  101dbc:	8b 45 0c             	mov    0xc(%ebp),%eax
  101dbf:	88 45 ec             	mov    %al,-0x14(%ebp)
  101dc2:	c7 45 fc 00 00 00 00 	movl   $0x0,-0x4(%ebp)
  101dc9:	eb 22                	jmp    101ded <charinstring+0x41>
  101dcb:	8b 45 08             	mov    0x8(%ebp),%eax
  101dce:	0f b6 00             	movzbl (%eax),%eax
  101dd1:	84 c0                	test   %al,%al
  101dd3:	74 18                	je     101ded <charinstring+0x41>
  101dd5:	83 45 fc 01          	addl   $0x1,-0x4(%ebp)
  101dd9:	8b 45 08             	mov    0x8(%ebp),%eax
  101ddc:	0f b6 00             	movzbl (%eax),%eax
  101ddf:	38 45 ec             	cmp    %al,-0x14(%ebp)
  101de2:	75 05                	jne    101de9 <charinstring+0x3d>
  101de4:	8b 45 fc             	mov    -0x4(%ebp),%eax
  101de7:	eb 13                	jmp    101dfc <charinstring+0x50>
  101de9:	83 45 08 01          	addl   $0x1,0x8(%ebp)
  101ded:	8b 45 08             	mov    0x8(%ebp),%eax
  101df0:	0f b6 00             	movzbl (%eax),%eax
  101df3:	84 c0                	test   %al,%al
  101df5:	75 d4                	jne    101dcb <charinstring+0x1f>
  101df7:	b8 00 00 00 00       	mov    $0x0,%eax
  101dfc:	c9                   	leave  
  101dfd:	c3                   	ret    

00101dfe <strtoint>:
  101dfe:	55                   	push   %ebp
  101dff:	89 e5                	mov    %esp,%ebp
  101e01:	83 ec 10             	sub    $0x10,%esp
  101e04:	e8 b8 1a 00 00       	call   1038c1 <__x86.get_pc_thunk.ax>
  101e09:	05 17 25 00 00       	add    $0x2517,%eax
  101e0e:	c7 45 fc 01 00 00 00 	movl   $0x1,-0x4(%ebp)
  101e15:	c7 45 f8 00 00 00 00 	movl   $0x0,-0x8(%ebp)
  101e1c:	c7 45 f4 00 00 00 00 	movl   $0x0,-0xc(%ebp)
  101e23:	eb 51                	jmp    101e76 <strtoint+0x78>
  101e25:	8b 55 f4             	mov    -0xc(%ebp),%edx
  101e28:	8b 45 08             	mov    0x8(%ebp),%eax
  101e2b:	01 d0                	add    %edx,%eax
  101e2d:	0f b6 00             	movzbl (%eax),%eax
  101e30:	88 45 f3             	mov    %al,-0xd(%ebp)
  101e33:	ff 75 08             	pushl  0x8(%ebp)
  101e36:	e8 cb fe ff ff       	call   101d06 <strlen>
  101e3b:	83 c4 04             	add    $0x4,%esp
  101e3e:	2b 45 f4             	sub    -0xc(%ebp),%eax
  101e41:	8d 50 ff             	lea    -0x1(%eax),%edx
  101e44:	8b 45 08             	mov    0x8(%ebp),%eax
  101e47:	01 d0                	add    %edx,%eax
  101e49:	8b 4d f4             	mov    -0xc(%ebp),%ecx
  101e4c:	8b 55 08             	mov    0x8(%ebp),%edx
  101e4f:	01 ca                	add    %ecx,%edx
  101e51:	0f b6 00             	movzbl (%eax),%eax
  101e54:	88 02                	mov    %al,(%edx)
  101e56:	ff 75 08             	pushl  0x8(%ebp)
  101e59:	e8 a8 fe ff ff       	call   101d06 <strlen>
  101e5e:	83 c4 04             	add    $0x4,%esp
  101e61:	2b 45 f4             	sub    -0xc(%ebp),%eax
  101e64:	8d 50 ff             	lea    -0x1(%eax),%edx
  101e67:	8b 45 08             	mov    0x8(%ebp),%eax
  101e6a:	01 c2                	add    %eax,%edx
  101e6c:	0f b6 45 f3          	movzbl -0xd(%ebp),%eax
  101e70:	88 02                	mov    %al,(%edx)
  101e72:	83 45 f4 01          	addl   $0x1,-0xc(%ebp)
  101e76:	ff 75 08             	pushl  0x8(%ebp)
  101e79:	e8 88 fe ff ff       	call   101d06 <strlen>
  101e7e:	83 c4 04             	add    $0x4,%esp
  101e81:	89 c2                	mov    %eax,%edx
  101e83:	c1 ea 1f             	shr    $0x1f,%edx
  101e86:	01 d0                	add    %edx,%eax
  101e88:	d1 f8                	sar    %eax
  101e8a:	39 45 f4             	cmp    %eax,-0xc(%ebp)
  101e8d:	7c 96                	jl     101e25 <strtoint+0x27>
  101e8f:	eb 3a                	jmp    101ecb <strtoint+0xcd>
  101e91:	8b 45 08             	mov    0x8(%ebp),%eax
  101e94:	0f b6 00             	movzbl (%eax),%eax
  101e97:	3c 2f                	cmp    $0x2f,%al
  101e99:	7e 3a                	jle    101ed5 <strtoint+0xd7>
  101e9b:	8b 45 08             	mov    0x8(%ebp),%eax
  101e9e:	0f b6 00             	movzbl (%eax),%eax
  101ea1:	3c 39                	cmp    $0x39,%al
  101ea3:	7f 30                	jg     101ed5 <strtoint+0xd7>
  101ea5:	8b 45 08             	mov    0x8(%ebp),%eax
  101ea8:	0f b6 00             	movzbl (%eax),%eax
  101eab:	0f be c0             	movsbl %al,%eax
  101eae:	83 e8 30             	sub    $0x30,%eax
  101eb1:	0f af 45 fc          	imul   -0x4(%ebp),%eax
  101eb5:	01 45 f8             	add    %eax,-0x8(%ebp)
  101eb8:	8b 55 fc             	mov    -0x4(%ebp),%edx
  101ebb:	89 d0                	mov    %edx,%eax
  101ebd:	c1 e0 02             	shl    $0x2,%eax
  101ec0:	01 d0                	add    %edx,%eax
  101ec2:	01 c0                	add    %eax,%eax
  101ec4:	89 45 fc             	mov    %eax,-0x4(%ebp)
  101ec7:	83 45 08 01          	addl   $0x1,0x8(%ebp)
  101ecb:	8b 45 08             	mov    0x8(%ebp),%eax
  101ece:	0f b6 00             	movzbl (%eax),%eax
  101ed1:	84 c0                	test   %al,%al
  101ed3:	75 bc                	jne    101e91 <strtoint+0x93>
  101ed5:	8b 45 f8             	mov    -0x8(%ebp),%eax
  101ed8:	c9                   	leave  
  101ed9:	c3                   	ret    

00101eda <unsignedToString>:
  101eda:	55                   	push   %ebp
  101edb:	89 e5                	mov    %esp,%ebp
  101edd:	57                   	push   %edi
  101ede:	56                   	push   %esi
  101edf:	53                   	push   %ebx
  101ee0:	83 ec 4c             	sub    $0x4c,%esp
  101ee3:	e8 d9 19 00 00       	call   1038c1 <__x86.get_pc_thunk.ax>
  101ee8:	05 38 24 00 00       	add    $0x2438,%eax
  101eed:	89 45 bc             	mov    %eax,-0x44(%ebp)
  101ef0:	8b 45 10             	mov    0x10(%ebp),%eax
  101ef3:	89 45 c0             	mov    %eax,-0x40(%ebp)
  101ef6:	8b 45 14             	mov    0x14(%ebp),%eax
  101ef9:	89 45 c4             	mov    %eax,-0x3c(%ebp)
  101efc:	83 7d 18 01          	cmpl   $0x1,0x18(%ebp)
  101f00:	7f 10                	jg     101f12 <unsignedToString+0x38>
  101f02:	83 7d 18 10          	cmpl   $0x10,0x18(%ebp)
  101f06:	7e 0a                	jle    101f12 <unsignedToString+0x38>
  101f08:	b8 ff ff ff ff       	mov    $0xffffffff,%eax
  101f0d:	e9 91 01 00 00       	jmp    1020a3 <unsignedToString+0x1c9>
  101f12:	c7 45 e4 00 00 00 00 	movl   $0x0,-0x1c(%ebp)
  101f19:	8b 45 bc             	mov    -0x44(%ebp),%eax
  101f1c:	8d 80 c8 0d 00 00    	lea    0xdc8(%eax),%eax
  101f22:	89 45 d0             	mov    %eax,-0x30(%ebp)
  101f25:	8b 45 c0             	mov    -0x40(%ebp),%eax
  101f28:	8b 55 c4             	mov    -0x3c(%ebp),%edx
  101f2b:	89 45 d8             	mov    %eax,-0x28(%ebp)
  101f2e:	89 55 dc             	mov    %edx,-0x24(%ebp)
  101f31:	eb 21                	jmp    101f54 <unsignedToString+0x7a>
  101f33:	8b 45 18             	mov    0x18(%ebp),%eax
  101f36:	99                   	cltd   
  101f37:	52                   	push   %edx
  101f38:	50                   	push   %eax
  101f39:	ff 75 dc             	pushl  -0x24(%ebp)
  101f3c:	ff 75 d8             	pushl  -0x28(%ebp)
  101f3f:	8b 5d bc             	mov    -0x44(%ebp),%ebx
  101f42:	e8 19 17 00 00       	call   103660 <__udivdi3>
  101f47:	83 c4 10             	add    $0x10,%esp
  101f4a:	89 45 d8             	mov    %eax,-0x28(%ebp)
  101f4d:	89 55 dc             	mov    %edx,-0x24(%ebp)
  101f50:	83 45 e4 01          	addl   $0x1,-0x1c(%ebp)
  101f54:	8b 45 d8             	mov    -0x28(%ebp),%eax
  101f57:	80 f4 00             	xor    $0x0,%ah
  101f5a:	89 45 b0             	mov    %eax,-0x50(%ebp)
  101f5d:	8b 45 dc             	mov    -0x24(%ebp),%eax
  101f60:	80 f4 00             	xor    $0x0,%ah
  101f63:	89 45 b4             	mov    %eax,-0x4c(%ebp)
  101f66:	8b 4d b0             	mov    -0x50(%ebp),%ecx
  101f69:	8b 5d b4             	mov    -0x4c(%ebp),%ebx
  101f6c:	89 d8                	mov    %ebx,%eax
  101f6e:	09 c8                	or     %ecx,%eax
  101f70:	85 c0                	test   %eax,%eax
  101f72:	75 bf                	jne    101f33 <unsignedToString+0x59>
  101f74:	8b 45 0c             	mov    0xc(%ebp),%eax
  101f77:	39 45 e4             	cmp    %eax,-0x1c(%ebp)
  101f7a:	7c 0a                	jl     101f86 <unsignedToString+0xac>
  101f7c:	b8 ff ff ff ff       	mov    $0xffffffff,%eax
  101f81:	e9 1d 01 00 00       	jmp    1020a3 <unsignedToString+0x1c9>
  101f86:	8b 45 c0             	mov    -0x40(%ebp),%eax
  101f89:	80 f4 00             	xor    $0x0,%ah
  101f8c:	89 c6                	mov    %eax,%esi
  101f8e:	8b 45 c4             	mov    -0x3c(%ebp),%eax
  101f91:	80 f4 00             	xor    $0x0,%ah
  101f94:	89 c7                	mov    %eax,%edi
  101f96:	89 f8                	mov    %edi,%eax
  101f98:	09 f0                	or     %esi,%eax
  101f9a:	85 c0                	test   %eax,%eax
  101f9c:	75 22                	jne    101fc0 <unsignedToString+0xe6>
  101f9e:	8b 45 d0             	mov    -0x30(%ebp),%eax
  101fa1:	0f b6 10             	movzbl (%eax),%edx
  101fa4:	8b 45 08             	mov    0x8(%ebp),%eax
  101fa7:	88 10                	mov    %dl,(%eax)
  101fa9:	83 45 e4 01          	addl   $0x1,-0x1c(%ebp)
  101fad:	8b 55 e4             	mov    -0x1c(%ebp),%edx
  101fb0:	8b 45 08             	mov    0x8(%ebp),%eax
  101fb3:	01 d0                	add    %edx,%eax
  101fb5:	c6 00 00             	movb   $0x0,(%eax)
  101fb8:	8b 45 e4             	mov    -0x1c(%ebp),%eax
  101fbb:	e9 e3 00 00 00       	jmp    1020a3 <unsignedToString+0x1c9>
  101fc0:	c7 45 e4 00 00 00 00 	movl   $0x0,-0x1c(%ebp)
  101fc7:	eb 51                	jmp    10201a <unsignedToString+0x140>
  101fc9:	8b 45 18             	mov    0x18(%ebp),%eax
  101fcc:	89 c1                	mov    %eax,%ecx
  101fce:	89 c3                	mov    %eax,%ebx
  101fd0:	c1 fb 1f             	sar    $0x1f,%ebx
  101fd3:	8b 45 c0             	mov    -0x40(%ebp),%eax
  101fd6:	8b 55 c4             	mov    -0x3c(%ebp),%edx
  101fd9:	53                   	push   %ebx
  101fda:	51                   	push   %ecx
  101fdb:	52                   	push   %edx
  101fdc:	50                   	push   %eax
  101fdd:	8b 5d bc             	mov    -0x44(%ebp),%ebx
  101fe0:	e8 8b 17 00 00       	call   103770 <__umoddi3>
  101fe5:	83 c4 10             	add    $0x10,%esp
  101fe8:	89 c2                	mov    %eax,%edx
  101fea:	8b 45 d0             	mov    -0x30(%ebp),%eax
  101fed:	01 d0                	add    %edx,%eax
  101fef:	8b 4d e4             	mov    -0x1c(%ebp),%ecx
  101ff2:	8b 55 08             	mov    0x8(%ebp),%edx
  101ff5:	01 ca                	add    %ecx,%edx
  101ff7:	0f b6 00             	movzbl (%eax),%eax
  101ffa:	88 02                	mov    %al,(%edx)
  101ffc:	8b 45 18             	mov    0x18(%ebp),%eax
  101fff:	99                   	cltd   
  102000:	52                   	push   %edx
  102001:	50                   	push   %eax
  102002:	ff 75 c4             	pushl  -0x3c(%ebp)
  102005:	ff 75 c0             	pushl  -0x40(%ebp)
  102008:	e8 53 16 00 00       	call   103660 <__udivdi3>
  10200d:	83 c4 10             	add    $0x10,%esp
  102010:	89 45 c0             	mov    %eax,-0x40(%ebp)
  102013:	89 55 c4             	mov    %edx,-0x3c(%ebp)
  102016:	83 45 e4 01          	addl   $0x1,-0x1c(%ebp)
  10201a:	8b 45 c0             	mov    -0x40(%ebp),%eax
  10201d:	80 f4 00             	xor    $0x0,%ah
  102020:	89 45 a8             	mov    %eax,-0x58(%ebp)
  102023:	8b 45 c4             	mov    -0x3c(%ebp),%eax
  102026:	80 f4 00             	xor    $0x0,%ah
  102029:	89 45 ac             	mov    %eax,-0x54(%ebp)
  10202c:	8b 75 a8             	mov    -0x58(%ebp),%esi
  10202f:	8b 7d ac             	mov    -0x54(%ebp),%edi
  102032:	89 f8                	mov    %edi,%eax
  102034:	09 f0                	or     %esi,%eax
  102036:	85 c0                	test   %eax,%eax
  102038:	75 8f                	jne    101fc9 <unsignedToString+0xef>
  10203a:	c7 45 d4 00 00 00 00 	movl   $0x0,-0x2c(%ebp)
  102041:	eb 41                	jmp    102084 <unsignedToString+0x1aa>
  102043:	8b 55 d4             	mov    -0x2c(%ebp),%edx
  102046:	8b 45 08             	mov    0x8(%ebp),%eax
  102049:	01 d0                	add    %edx,%eax
  10204b:	0f b6 00             	movzbl (%eax),%eax
  10204e:	88 45 cf             	mov    %al,-0x31(%ebp)
  102051:	8b 45 e4             	mov    -0x1c(%ebp),%eax
  102054:	2b 45 d4             	sub    -0x2c(%ebp),%eax
  102057:	8d 50 ff             	lea    -0x1(%eax),%edx
  10205a:	8b 45 08             	mov    0x8(%ebp),%eax
  10205d:	01 d0                	add    %edx,%eax
  10205f:	8b 4d d4             	mov    -0x2c(%ebp),%ecx
  102062:	8b 55 08             	mov    0x8(%ebp),%edx
  102065:	01 ca                	add    %ecx,%edx
  102067:	0f b6 00             	movzbl (%eax),%eax
  10206a:	88 02                	mov    %al,(%edx)
  10206c:	8b 45 e4             	mov    -0x1c(%ebp),%eax
  10206f:	2b 45 d4             	sub    -0x2c(%ebp),%eax
  102072:	8d 50 ff             	lea    -0x1(%eax),%edx
  102075:	8b 45 08             	mov    0x8(%ebp),%eax
  102078:	01 c2                	add    %eax,%edx
  10207a:	0f b6 45 cf          	movzbl -0x31(%ebp),%eax
  10207e:	88 02                	mov    %al,(%edx)
  102080:	83 45 d4 01          	addl   $0x1,-0x2c(%ebp)
  102084:	8b 45 e4             	mov    -0x1c(%ebp),%eax
  102087:	89 c2                	mov    %eax,%edx
  102089:	c1 ea 1f             	shr    $0x1f,%edx
  10208c:	01 d0                	add    %edx,%eax
  10208e:	d1 f8                	sar    %eax
  102090:	39 45 d4             	cmp    %eax,-0x2c(%ebp)
  102093:	7c ae                	jl     102043 <unsignedToString+0x169>
  102095:	8b 55 e4             	mov    -0x1c(%ebp),%edx
  102098:	8b 45 08             	mov    0x8(%ebp),%eax
  10209b:	01 d0                	add    %edx,%eax
  10209d:	c6 00 00             	movb   $0x0,(%eax)
  1020a0:	8b 45 e4             	mov    -0x1c(%ebp),%eax
  1020a3:	8d 65 f4             	lea    -0xc(%ebp),%esp
  1020a6:	5b                   	pop    %ebx
  1020a7:	5e                   	pop    %esi
  1020a8:	5f                   	pop    %edi
  1020a9:	5d                   	pop    %ebp
  1020aa:	c3                   	ret    

001020ab <signedToString>:
  1020ab:	55                   	push   %ebp
  1020ac:	89 e5                	mov    %esp,%ebp
  1020ae:	83 ec 28             	sub    $0x28,%esp
  1020b1:	e8 0b 18 00 00       	call   1038c1 <__x86.get_pc_thunk.ax>
  1020b6:	05 6a 22 00 00       	add    $0x226a,%eax
  1020bb:	8b 45 10             	mov    0x10(%ebp),%eax
  1020be:	89 45 e0             	mov    %eax,-0x20(%ebp)
  1020c1:	8b 45 14             	mov    0x14(%ebp),%eax
  1020c4:	89 45 e4             	mov    %eax,-0x1c(%ebp)
  1020c7:	c7 45 f4 00 00 00 00 	movl   $0x0,-0xc(%ebp)
  1020ce:	83 7d e4 00          	cmpl   $0x0,-0x1c(%ebp)
  1020d2:	79 18                	jns    1020ec <signedToString+0x41>
  1020d4:	8b 45 08             	mov    0x8(%ebp),%eax
  1020d7:	c6 00 2d             	movb   $0x2d,(%eax)
  1020da:	f7 5d e0             	negl   -0x20(%ebp)
  1020dd:	83 55 e4 00          	adcl   $0x0,-0x1c(%ebp)
  1020e1:	f7 5d e4             	negl   -0x1c(%ebp)
  1020e4:	83 45 08 01          	addl   $0x1,0x8(%ebp)
  1020e8:	83 45 f4 01          	addl   $0x1,-0xc(%ebp)
  1020ec:	8b 45 e0             	mov    -0x20(%ebp),%eax
  1020ef:	8b 55 e4             	mov    -0x1c(%ebp),%edx
  1020f2:	83 ec 0c             	sub    $0xc,%esp
  1020f5:	ff 75 18             	pushl  0x18(%ebp)
  1020f8:	52                   	push   %edx
  1020f9:	50                   	push   %eax
  1020fa:	ff 75 0c             	pushl  0xc(%ebp)
  1020fd:	ff 75 08             	pushl  0x8(%ebp)
  102100:	e8 d5 fd ff ff       	call   101eda <unsignedToString>
  102105:	83 c4 20             	add    $0x20,%esp
  102108:	89 45 f0             	mov    %eax,-0x10(%ebp)
  10210b:	8b 45 f4             	mov    -0xc(%ebp),%eax
  10210e:	01 45 f0             	add    %eax,-0x10(%ebp)
  102111:	8b 45 f0             	mov    -0x10(%ebp),%eax
  102114:	c9                   	leave  
  102115:	c3                   	ret    

00102116 <genprintf>:
  102116:	55                   	push   %ebp
  102117:	89 e5                	mov    %esp,%ebp
  102119:	81 ec 88 00 00 00    	sub    $0x88,%esp
  10211f:	e8 9d 17 00 00       	call   1038c1 <__x86.get_pc_thunk.ax>
  102124:	05 fc 21 00 00       	add    $0x21fc,%eax
  102129:	c7 45 f4 00 00 00 00 	movl   $0x0,-0xc(%ebp)
  102130:	e9 36 08 00 00       	jmp    10296b <genprintf+0x855>
  102135:	83 45 f4 01          	addl   $0x1,-0xc(%ebp)
  102139:	8b 45 10             	mov    0x10(%ebp),%eax
  10213c:	0f b6 00             	movzbl (%eax),%eax
  10213f:	3c 25                	cmp    $0x25,%al
  102141:	0f 85 02 08 00 00    	jne    102949 <genprintf+0x833>
  102147:	83 45 10 01          	addl   $0x1,0x10(%ebp)
  10214b:	8b 45 10             	mov    0x10(%ebp),%eax
  10214e:	0f b6 00             	movzbl (%eax),%eax
  102151:	3c 69                	cmp    $0x69,%al
  102153:	0f 85 25 01 00 00    	jne    10227e <genprintf+0x168>
  102159:	83 45 10 01          	addl   $0x1,0x10(%ebp)
  10215d:	c7 85 7b ff ff ff 58 	movl   $0x58585858,-0x85(%ebp)
  102164:	58 58 58 
  102167:	c7 85 7f ff ff ff 58 	movl   $0x58585858,-0x81(%ebp)
  10216e:	58 58 58 
  102171:	c7 45 83 58 58 58 58 	movl   $0x58585858,-0x7d(%ebp)
  102178:	c7 45 87 58 58 58 58 	movl   $0x58585858,-0x79(%ebp)
  10217f:	c7 45 8b 58 58 58 58 	movl   $0x58585858,-0x75(%ebp)
  102186:	c7 45 8f 58 58 58 58 	movl   $0x58585858,-0x71(%ebp)
  10218d:	c7 45 93 58 58 58 58 	movl   $0x58585858,-0x6d(%ebp)
  102194:	c7 45 97 58 58 58 58 	movl   $0x58585858,-0x69(%ebp)
  10219b:	c7 45 9b 58 58 58 58 	movl   $0x58585858,-0x65(%ebp)
  1021a2:	c7 45 9f 58 58 58 58 	movl   $0x58585858,-0x61(%ebp)
  1021a9:	c7 45 a3 58 58 58 58 	movl   $0x58585858,-0x5d(%ebp)
  1021b0:	c7 45 a7 58 58 58 58 	movl   $0x58585858,-0x59(%ebp)
  1021b7:	c7 45 ab 58 58 58 58 	movl   $0x58585858,-0x55(%ebp)
  1021be:	c7 45 af 58 58 58 58 	movl   $0x58585858,-0x51(%ebp)
  1021c5:	c7 45 b3 58 58 58 58 	movl   $0x58585858,-0x4d(%ebp)
  1021cc:	c7 45 b7 58 58 58 58 	movl   $0x58585858,-0x49(%ebp)
  1021d3:	8b 45 10             	mov    0x10(%ebp),%eax
  1021d6:	0f b6 00             	movzbl (%eax),%eax
  1021d9:	3c 75                	cmp    $0x75,%al
  1021db:	75 31                	jne    10220e <genprintf+0xf8>
  1021dd:	83 45 10 01          	addl   $0x1,0x10(%ebp)
  1021e1:	8b 45 14             	mov    0x14(%ebp),%eax
  1021e4:	8d 50 04             	lea    0x4(%eax),%edx
  1021e7:	89 55 14             	mov    %edx,0x14(%ebp)
  1021ea:	8b 00                	mov    (%eax),%eax
  1021ec:	ba 00 00 00 00       	mov    $0x0,%edx
  1021f1:	83 ec 0c             	sub    $0xc,%esp
  1021f4:	6a 0a                	push   $0xa
  1021f6:	52                   	push   %edx
  1021f7:	50                   	push   %eax
  1021f8:	6a 40                	push   $0x40
  1021fa:	8d 85 7b ff ff ff    	lea    -0x85(%ebp),%eax
  102200:	50                   	push   %eax
  102201:	e8 d4 fc ff ff       	call   101eda <unsignedToString>
  102206:	83 c4 20             	add    $0x20,%esp
  102209:	89 45 f0             	mov    %eax,-0x10(%ebp)
  10220c:	eb 27                	jmp    102235 <genprintf+0x11f>
  10220e:	8b 45 14             	mov    0x14(%ebp),%eax
  102211:	8d 50 04             	lea    0x4(%eax),%edx
  102214:	89 55 14             	mov    %edx,0x14(%ebp)
  102217:	8b 00                	mov    (%eax),%eax
  102219:	99                   	cltd   
  10221a:	83 ec 0c             	sub    $0xc,%esp
  10221d:	6a 0a                	push   $0xa
  10221f:	52                   	push   %edx
  102220:	50                   	push   %eax
  102221:	6a 40                	push   $0x40
  102223:	8d 85 7b ff ff ff    	lea    -0x85(%ebp),%eax
  102229:	50                   	push   %eax
  10222a:	e8 7c fe ff ff       	call   1020ab <signedToString>
  10222f:	83 c4 20             	add    $0x20,%esp
  102232:	89 45 f0             	mov    %eax,-0x10(%ebp)
  102235:	8b 45 f0             	mov    -0x10(%ebp),%eax
  102238:	83 e8 01             	sub    $0x1,%eax
  10223b:	01 45 f4             	add    %eax,-0xc(%ebp)
  10223e:	c7 45 ec 00 00 00 00 	movl   $0x0,-0x14(%ebp)
  102245:	eb 2a                	jmp    102271 <genprintf+0x15b>
  102247:	83 7d 08 00          	cmpl   $0x0,0x8(%ebp)
  10224b:	74 20                	je     10226d <genprintf+0x157>
  10224d:	8d 95 7b ff ff ff    	lea    -0x85(%ebp),%edx
  102253:	8b 45 ec             	mov    -0x14(%ebp),%eax
  102256:	01 d0                	add    %edx,%eax
  102258:	0f b6 00             	movzbl (%eax),%eax
  10225b:	0f be c0             	movsbl %al,%eax
  10225e:	83 ec 08             	sub    $0x8,%esp
  102261:	50                   	push   %eax
  102262:	ff 75 0c             	pushl  0xc(%ebp)
  102265:	8b 45 08             	mov    0x8(%ebp),%eax
  102268:	ff d0                	call   *%eax
  10226a:	83 c4 10             	add    $0x10,%esp
  10226d:	83 45 ec 01          	addl   $0x1,-0x14(%ebp)
  102271:	8b 45 ec             	mov    -0x14(%ebp),%eax
  102274:	3b 45 f0             	cmp    -0x10(%ebp),%eax
  102277:	7c ce                	jl     102247 <genprintf+0x131>
  102279:	e9 ed 06 00 00       	jmp    10296b <genprintf+0x855>
  10227e:	8b 45 10             	mov    0x10(%ebp),%eax
  102281:	0f b6 00             	movzbl (%eax),%eax
  102284:	3c 6c                	cmp    $0x6c,%al
  102286:	0f 85 21 01 00 00    	jne    1023ad <genprintf+0x297>
  10228c:	83 45 10 01          	addl   $0x1,0x10(%ebp)
  102290:	c7 85 7b ff ff ff 58 	movl   $0x58585858,-0x85(%ebp)
  102297:	58 58 58 
  10229a:	c7 85 7f ff ff ff 58 	movl   $0x58585858,-0x81(%ebp)
  1022a1:	58 58 58 
  1022a4:	c7 45 83 58 58 58 58 	movl   $0x58585858,-0x7d(%ebp)
  1022ab:	c7 45 87 58 58 58 58 	movl   $0x58585858,-0x79(%ebp)
  1022b2:	c7 45 8b 58 58 58 58 	movl   $0x58585858,-0x75(%ebp)
  1022b9:	c7 45 8f 58 58 58 58 	movl   $0x58585858,-0x71(%ebp)
  1022c0:	c7 45 93 58 58 58 58 	movl   $0x58585858,-0x6d(%ebp)
  1022c7:	c7 45 97 58 58 58 58 	movl   $0x58585858,-0x69(%ebp)
  1022ce:	c7 45 9b 58 58 58 58 	movl   $0x58585858,-0x65(%ebp)
  1022d5:	c7 45 9f 58 58 58 58 	movl   $0x58585858,-0x61(%ebp)
  1022dc:	c7 45 a3 58 58 58 58 	movl   $0x58585858,-0x5d(%ebp)
  1022e3:	c7 45 a7 58 58 58 58 	movl   $0x58585858,-0x59(%ebp)
  1022ea:	c7 45 ab 58 58 58 58 	movl   $0x58585858,-0x55(%ebp)
  1022f1:	c7 45 af 58 58 58 58 	movl   $0x58585858,-0x51(%ebp)
  1022f8:	c7 45 b3 58 58 58 58 	movl   $0x58585858,-0x4d(%ebp)
  1022ff:	c7 45 b7 58 58 58 58 	movl   $0x58585858,-0x49(%ebp)
  102306:	8b 45 10             	mov    0x10(%ebp),%eax
  102309:	0f b6 00             	movzbl (%eax),%eax
  10230c:	3c 75                	cmp    $0x75,%al
  10230e:	75 2d                	jne    10233d <genprintf+0x227>
  102310:	83 45 10 01          	addl   $0x1,0x10(%ebp)
  102314:	8b 45 14             	mov    0x14(%ebp),%eax
  102317:	8d 50 04             	lea    0x4(%eax),%edx
  10231a:	89 55 14             	mov    %edx,0x14(%ebp)
  10231d:	8b 00                	mov    (%eax),%eax
  10231f:	99                   	cltd   
  102320:	83 ec 0c             	sub    $0xc,%esp
  102323:	6a 0a                	push   $0xa
  102325:	52                   	push   %edx
  102326:	50                   	push   %eax
  102327:	6a 40                	push   $0x40
  102329:	8d 85 7b ff ff ff    	lea    -0x85(%ebp),%eax
  10232f:	50                   	push   %eax
  102330:	e8 a5 fb ff ff       	call   101eda <unsignedToString>
  102335:	83 c4 20             	add    $0x20,%esp
  102338:	89 45 e8             	mov    %eax,-0x18(%ebp)
  10233b:	eb 27                	jmp    102364 <genprintf+0x24e>
  10233d:	8b 45 14             	mov    0x14(%ebp),%eax
  102340:	8d 50 04             	lea    0x4(%eax),%edx
  102343:	89 55 14             	mov    %edx,0x14(%ebp)
  102346:	8b 00                	mov    (%eax),%eax
  102348:	99                   	cltd   
  102349:	83 ec 0c             	sub    $0xc,%esp
  10234c:	6a 0a                	push   $0xa
  10234e:	52                   	push   %edx
  10234f:	50                   	push   %eax
  102350:	6a 40                	push   $0x40
  102352:	8d 85 7b ff ff ff    	lea    -0x85(%ebp),%eax
  102358:	50                   	push   %eax
  102359:	e8 4d fd ff ff       	call   1020ab <signedToString>
  10235e:	83 c4 20             	add    $0x20,%esp
  102361:	89 45 e8             	mov    %eax,-0x18(%ebp)
  102364:	8b 45 e8             	mov    -0x18(%ebp),%eax
  102367:	83 e8 01             	sub    $0x1,%eax
  10236a:	01 45 f4             	add    %eax,-0xc(%ebp)
  10236d:	c7 45 e4 00 00 00 00 	movl   $0x0,-0x1c(%ebp)
  102374:	eb 2a                	jmp    1023a0 <genprintf+0x28a>
  102376:	83 7d 08 00          	cmpl   $0x0,0x8(%ebp)
  10237a:	74 20                	je     10239c <genprintf+0x286>
  10237c:	8d 95 7b ff ff ff    	lea    -0x85(%ebp),%edx
  102382:	8b 45 e4             	mov    -0x1c(%ebp),%eax
  102385:	01 d0                	add    %edx,%eax
  102387:	0f b6 00             	movzbl (%eax),%eax
  10238a:	0f be c0             	movsbl %al,%eax
  10238d:	83 ec 08             	sub    $0x8,%esp
  102390:	50                   	push   %eax
  102391:	ff 75 0c             	pushl  0xc(%ebp)
  102394:	8b 45 08             	mov    0x8(%ebp),%eax
  102397:	ff d0                	call   *%eax
  102399:	83 c4 10             	add    $0x10,%esp
  10239c:	83 45 e4 01          	addl   $0x1,-0x1c(%ebp)
  1023a0:	8b 45 e4             	mov    -0x1c(%ebp),%eax
  1023a3:	3b 45 e8             	cmp    -0x18(%ebp),%eax
  1023a6:	7c ce                	jl     102376 <genprintf+0x260>
  1023a8:	e9 be 05 00 00       	jmp    10296b <genprintf+0x855>
  1023ad:	8b 45 10             	mov    0x10(%ebp),%eax
  1023b0:	0f b6 00             	movzbl (%eax),%eax
  1023b3:	3c 4c                	cmp    $0x4c,%al
  1023b5:	0f 85 25 01 00 00    	jne    1024e0 <genprintf+0x3ca>
  1023bb:	83 45 10 01          	addl   $0x1,0x10(%ebp)
  1023bf:	c7 85 7b ff ff ff 58 	movl   $0x58585858,-0x85(%ebp)
  1023c6:	58 58 58 
  1023c9:	c7 85 7f ff ff ff 58 	movl   $0x58585858,-0x81(%ebp)
  1023d0:	58 58 58 
  1023d3:	c7 45 83 58 58 58 58 	movl   $0x58585858,-0x7d(%ebp)
  1023da:	c7 45 87 58 58 58 58 	movl   $0x58585858,-0x79(%ebp)
  1023e1:	c7 45 8b 58 58 58 58 	movl   $0x58585858,-0x75(%ebp)
  1023e8:	c7 45 8f 58 58 58 58 	movl   $0x58585858,-0x71(%ebp)
  1023ef:	c7 45 93 58 58 58 58 	movl   $0x58585858,-0x6d(%ebp)
  1023f6:	c7 45 97 58 58 58 58 	movl   $0x58585858,-0x69(%ebp)
  1023fd:	c7 45 9b 58 58 58 58 	movl   $0x58585858,-0x65(%ebp)
  102404:	c7 45 9f 58 58 58 58 	movl   $0x58585858,-0x61(%ebp)
  10240b:	c7 45 a3 58 58 58 58 	movl   $0x58585858,-0x5d(%ebp)
  102412:	c7 45 a7 58 58 58 58 	movl   $0x58585858,-0x59(%ebp)
  102419:	c7 45 ab 58 58 58 58 	movl   $0x58585858,-0x55(%ebp)
  102420:	c7 45 af 58 58 58 58 	movl   $0x58585858,-0x51(%ebp)
  102427:	c7 45 b3 58 58 58 58 	movl   $0x58585858,-0x4d(%ebp)
  10242e:	c7 45 b7 58 58 58 58 	movl   $0x58585858,-0x49(%ebp)
  102435:	8b 45 10             	mov    0x10(%ebp),%eax
  102438:	0f b6 00             	movzbl (%eax),%eax
  10243b:	3c 75                	cmp    $0x75,%al
  10243d:	75 2f                	jne    10246e <genprintf+0x358>
  10243f:	83 45 10 01          	addl   $0x1,0x10(%ebp)
  102443:	8b 45 14             	mov    0x14(%ebp),%eax
  102446:	8d 50 08             	lea    0x8(%eax),%edx
  102449:	89 55 14             	mov    %edx,0x14(%ebp)
  10244c:	8b 50 04             	mov    0x4(%eax),%edx
  10244f:	8b 00                	mov    (%eax),%eax
  102451:	83 ec 0c             	sub    $0xc,%esp
  102454:	6a 0a                	push   $0xa
  102456:	52                   	push   %edx
  102457:	50                   	push   %eax
  102458:	6a 40                	push   $0x40
  10245a:	8d 85 7b ff ff ff    	lea    -0x85(%ebp),%eax
  102460:	50                   	push   %eax
  102461:	e8 74 fa ff ff       	call   101eda <unsignedToString>
  102466:	83 c4 20             	add    $0x20,%esp
  102469:	89 45 e0             	mov    %eax,-0x20(%ebp)
  10246c:	eb 29                	jmp    102497 <genprintf+0x381>
  10246e:	8b 45 14             	mov    0x14(%ebp),%eax
  102471:	8d 50 08             	lea    0x8(%eax),%edx
  102474:	89 55 14             	mov    %edx,0x14(%ebp)
  102477:	8b 50 04             	mov    0x4(%eax),%edx
  10247a:	8b 00                	mov    (%eax),%eax
  10247c:	83 ec 0c             	sub    $0xc,%esp
  10247f:	6a 0a                	push   $0xa
  102481:	52                   	push   %edx
  102482:	50                   	push   %eax
  102483:	6a 40                	push   $0x40
  102485:	8d 85 7b ff ff ff    	lea    -0x85(%ebp),%eax
  10248b:	50                   	push   %eax
  10248c:	e8 1a fc ff ff       	call   1020ab <signedToString>
  102491:	83 c4 20             	add    $0x20,%esp
  102494:	89 45 e0             	mov    %eax,-0x20(%ebp)
  102497:	8b 45 e0             	mov    -0x20(%ebp),%eax
  10249a:	83 e8 01             	sub    $0x1,%eax
  10249d:	01 45 f4             	add    %eax,-0xc(%ebp)
  1024a0:	c7 45 dc 00 00 00 00 	movl   $0x0,-0x24(%ebp)
  1024a7:	eb 2a                	jmp    1024d3 <genprintf+0x3bd>
  1024a9:	83 7d 08 00          	cmpl   $0x0,0x8(%ebp)
  1024ad:	74 20                	je     1024cf <genprintf+0x3b9>
  1024af:	8d 95 7b ff ff ff    	lea    -0x85(%ebp),%edx
  1024b5:	8b 45 dc             	mov    -0x24(%ebp),%eax
  1024b8:	01 d0                	add    %edx,%eax
  1024ba:	0f b6 00             	movzbl (%eax),%eax
  1024bd:	0f be c0             	movsbl %al,%eax
  1024c0:	83 ec 08             	sub    $0x8,%esp
  1024c3:	50                   	push   %eax
  1024c4:	ff 75 0c             	pushl  0xc(%ebp)
  1024c7:	8b 45 08             	mov    0x8(%ebp),%eax
  1024ca:	ff d0                	call   *%eax
  1024cc:	83 c4 10             	add    $0x10,%esp
  1024cf:	83 45 dc 01          	addl   $0x1,-0x24(%ebp)
  1024d3:	8b 45 dc             	mov    -0x24(%ebp),%eax
  1024d6:	3b 45 e0             	cmp    -0x20(%ebp),%eax
  1024d9:	7c ce                	jl     1024a9 <genprintf+0x393>
  1024db:	e9 8b 04 00 00       	jmp    10296b <genprintf+0x855>
  1024e0:	8b 45 10             	mov    0x10(%ebp),%eax
  1024e3:	0f b6 00             	movzbl (%eax),%eax
  1024e6:	3c 62                	cmp    $0x62,%al
  1024e8:	0f 85 25 01 00 00    	jne    102613 <genprintf+0x4fd>
  1024ee:	83 45 10 01          	addl   $0x1,0x10(%ebp)
  1024f2:	c7 85 7b ff ff ff 58 	movl   $0x58585858,-0x85(%ebp)
  1024f9:	58 58 58 
  1024fc:	c7 85 7f ff ff ff 58 	movl   $0x58585858,-0x81(%ebp)
  102503:	58 58 58 
  102506:	c7 45 83 58 58 58 58 	movl   $0x58585858,-0x7d(%ebp)
  10250d:	c7 45 87 58 58 58 58 	movl   $0x58585858,-0x79(%ebp)
  102514:	c7 45 8b 58 58 58 58 	movl   $0x58585858,-0x75(%ebp)
  10251b:	c7 45 8f 58 58 58 58 	movl   $0x58585858,-0x71(%ebp)
  102522:	c7 45 93 58 58 58 58 	movl   $0x58585858,-0x6d(%ebp)
  102529:	c7 45 97 58 58 58 58 	movl   $0x58585858,-0x69(%ebp)
  102530:	c7 45 9b 58 58 58 58 	movl   $0x58585858,-0x65(%ebp)
  102537:	c7 45 9f 58 58 58 58 	movl   $0x58585858,-0x61(%ebp)
  10253e:	c7 45 a3 58 58 58 58 	movl   $0x58585858,-0x5d(%ebp)
  102545:	c7 45 a7 58 58 58 58 	movl   $0x58585858,-0x59(%ebp)
  10254c:	c7 45 ab 58 58 58 58 	movl   $0x58585858,-0x55(%ebp)
  102553:	c7 45 af 58 58 58 58 	movl   $0x58585858,-0x51(%ebp)
  10255a:	c7 45 b3 58 58 58 58 	movl   $0x58585858,-0x4d(%ebp)
  102561:	c7 45 b7 58 58 58 58 	movl   $0x58585858,-0x49(%ebp)
  102568:	8b 45 10             	mov    0x10(%ebp),%eax
  10256b:	0f b6 00             	movzbl (%eax),%eax
  10256e:	3c 75                	cmp    $0x75,%al
  102570:	75 31                	jne    1025a3 <genprintf+0x48d>
  102572:	83 45 10 01          	addl   $0x1,0x10(%ebp)
  102576:	8b 45 14             	mov    0x14(%ebp),%eax
  102579:	8d 50 04             	lea    0x4(%eax),%edx
  10257c:	89 55 14             	mov    %edx,0x14(%ebp)
  10257f:	8b 00                	mov    (%eax),%eax
  102581:	ba 00 00 00 00       	mov    $0x0,%edx
  102586:	83 ec 0c             	sub    $0xc,%esp
  102589:	6a 02                	push   $0x2
  10258b:	52                   	push   %edx
  10258c:	50                   	push   %eax
  10258d:	6a 40                	push   $0x40
  10258f:	8d 85 7b ff ff ff    	lea    -0x85(%ebp),%eax
  102595:	50                   	push   %eax
  102596:	e8 3f f9 ff ff       	call   101eda <unsignedToString>
  10259b:	83 c4 20             	add    $0x20,%esp
  10259e:	89 45 d8             	mov    %eax,-0x28(%ebp)
  1025a1:	eb 27                	jmp    1025ca <genprintf+0x4b4>
  1025a3:	8b 45 14             	mov    0x14(%ebp),%eax
  1025a6:	8d 50 04             	lea    0x4(%eax),%edx
  1025a9:	89 55 14             	mov    %edx,0x14(%ebp)
  1025ac:	8b 00                	mov    (%eax),%eax
  1025ae:	99                   	cltd   
  1025af:	83 ec 0c             	sub    $0xc,%esp
  1025b2:	6a 02                	push   $0x2
  1025b4:	52                   	push   %edx
  1025b5:	50                   	push   %eax
  1025b6:	6a 40                	push   $0x40
  1025b8:	8d 85 7b ff ff ff    	lea    -0x85(%ebp),%eax
  1025be:	50                   	push   %eax
  1025bf:	e8 e7 fa ff ff       	call   1020ab <signedToString>
  1025c4:	83 c4 20             	add    $0x20,%esp
  1025c7:	89 45 d8             	mov    %eax,-0x28(%ebp)
  1025ca:	8b 45 d8             	mov    -0x28(%ebp),%eax
  1025cd:	83 e8 01             	sub    $0x1,%eax
  1025d0:	01 45 f4             	add    %eax,-0xc(%ebp)
  1025d3:	c7 45 d4 00 00 00 00 	movl   $0x0,-0x2c(%ebp)
  1025da:	eb 2a                	jmp    102606 <genprintf+0x4f0>
  1025dc:	83 7d 08 00          	cmpl   $0x0,0x8(%ebp)
  1025e0:	74 20                	je     102602 <genprintf+0x4ec>
  1025e2:	8d 95 7b ff ff ff    	lea    -0x85(%ebp),%edx
  1025e8:	8b 45 d4             	mov    -0x2c(%ebp),%eax
  1025eb:	01 d0                	add    %edx,%eax
  1025ed:	0f b6 00             	movzbl (%eax),%eax
  1025f0:	0f be c0             	movsbl %al,%eax
  1025f3:	83 ec 08             	sub    $0x8,%esp
  1025f6:	50                   	push   %eax
  1025f7:	ff 75 0c             	pushl  0xc(%ebp)
  1025fa:	8b 45 08             	mov    0x8(%ebp),%eax
  1025fd:	ff d0                	call   *%eax
  1025ff:	83 c4 10             	add    $0x10,%esp
  102602:	83 45 d4 01          	addl   $0x1,-0x2c(%ebp)
  102606:	8b 45 d4             	mov    -0x2c(%ebp),%eax
  102609:	3b 45 d8             	cmp    -0x28(%ebp),%eax
  10260c:	7c ce                	jl     1025dc <genprintf+0x4c6>
  10260e:	e9 58 03 00 00       	jmp    10296b <genprintf+0x855>
  102613:	8b 45 10             	mov    0x10(%ebp),%eax
  102616:	0f b6 00             	movzbl (%eax),%eax
  102619:	3c 6f                	cmp    $0x6f,%al
  10261b:	0f 85 25 01 00 00    	jne    102746 <genprintf+0x630>
  102621:	83 45 10 01          	addl   $0x1,0x10(%ebp)
  102625:	c7 85 7b ff ff ff 58 	movl   $0x58585858,-0x85(%ebp)
  10262c:	58 58 58 
  10262f:	c7 85 7f ff ff ff 58 	movl   $0x58585858,-0x81(%ebp)
  102636:	58 58 58 
  102639:	c7 45 83 58 58 58 58 	movl   $0x58585858,-0x7d(%ebp)
  102640:	c7 45 87 58 58 58 58 	movl   $0x58585858,-0x79(%ebp)
  102647:	c7 45 8b 58 58 58 58 	movl   $0x58585858,-0x75(%ebp)
  10264e:	c7 45 8f 58 58 58 58 	movl   $0x58585858,-0x71(%ebp)
  102655:	c7 45 93 58 58 58 58 	movl   $0x58585858,-0x6d(%ebp)
  10265c:	c7 45 97 58 58 58 58 	movl   $0x58585858,-0x69(%ebp)
  102663:	c7 45 9b 58 58 58 58 	movl   $0x58585858,-0x65(%ebp)
  10266a:	c7 45 9f 58 58 58 58 	movl   $0x58585858,-0x61(%ebp)
  102671:	c7 45 a3 58 58 58 58 	movl   $0x58585858,-0x5d(%ebp)
  102678:	c7 45 a7 58 58 58 58 	movl   $0x58585858,-0x59(%ebp)
  10267f:	c7 45 ab 58 58 58 58 	movl   $0x58585858,-0x55(%ebp)
  102686:	c7 45 af 58 58 58 58 	movl   $0x58585858,-0x51(%ebp)
  10268d:	c7 45 b3 58 58 58 58 	movl   $0x58585858,-0x4d(%ebp)
  102694:	c7 45 b7 58 58 58 58 	movl   $0x58585858,-0x49(%ebp)
  10269b:	8b 45 10             	mov    0x10(%ebp),%eax
  10269e:	0f b6 00             	movzbl (%eax),%eax
  1026a1:	3c 75                	cmp    $0x75,%al
  1026a3:	75 31                	jne    1026d6 <genprintf+0x5c0>
  1026a5:	83 45 10 01          	addl   $0x1,0x10(%ebp)
  1026a9:	8b 45 14             	mov    0x14(%ebp),%eax
  1026ac:	8d 50 04             	lea    0x4(%eax),%edx
  1026af:	89 55 14             	mov    %edx,0x14(%ebp)
  1026b2:	8b 00                	mov    (%eax),%eax
  1026b4:	ba 00 00 00 00       	mov    $0x0,%edx
  1026b9:	83 ec 0c             	sub    $0xc,%esp
  1026bc:	6a 08                	push   $0x8
  1026be:	52                   	push   %edx
  1026bf:	50                   	push   %eax
  1026c0:	6a 40                	push   $0x40
  1026c2:	8d 85 7b ff ff ff    	lea    -0x85(%ebp),%eax
  1026c8:	50                   	push   %eax
  1026c9:	e8 0c f8 ff ff       	call   101eda <unsignedToString>
  1026ce:	83 c4 20             	add    $0x20,%esp
  1026d1:	89 45 d0             	mov    %eax,-0x30(%ebp)
  1026d4:	eb 27                	jmp    1026fd <genprintf+0x5e7>
  1026d6:	8b 45 14             	mov    0x14(%ebp),%eax
  1026d9:	8d 50 04             	lea    0x4(%eax),%edx
  1026dc:	89 55 14             	mov    %edx,0x14(%ebp)
  1026df:	8b 00                	mov    (%eax),%eax
  1026e1:	99                   	cltd   
  1026e2:	83 ec 0c             	sub    $0xc,%esp
  1026e5:	6a 08                	push   $0x8
  1026e7:	52                   	push   %edx
  1026e8:	50                   	push   %eax
  1026e9:	6a 40                	push   $0x40
  1026eb:	8d 85 7b ff ff ff    	lea    -0x85(%ebp),%eax
  1026f1:	50                   	push   %eax
  1026f2:	e8 b4 f9 ff ff       	call   1020ab <signedToString>
  1026f7:	83 c4 20             	add    $0x20,%esp
  1026fa:	89 45 d0             	mov    %eax,-0x30(%ebp)
  1026fd:	8b 45 d0             	mov    -0x30(%ebp),%eax
  102700:	83 e8 01             	sub    $0x1,%eax
  102703:	01 45 f4             	add    %eax,-0xc(%ebp)
  102706:	c7 45 cc 00 00 00 00 	movl   $0x0,-0x34(%ebp)
  10270d:	eb 2a                	jmp    102739 <genprintf+0x623>
  10270f:	83 7d 08 00          	cmpl   $0x0,0x8(%ebp)
  102713:	74 20                	je     102735 <genprintf+0x61f>
  102715:	8d 95 7b ff ff ff    	lea    -0x85(%ebp),%edx
  10271b:	8b 45 cc             	mov    -0x34(%ebp),%eax
  10271e:	01 d0                	add    %edx,%eax
  102720:	0f b6 00             	movzbl (%eax),%eax
  102723:	0f be c0             	movsbl %al,%eax
  102726:	83 ec 08             	sub    $0x8,%esp
  102729:	50                   	push   %eax
  10272a:	ff 75 0c             	pushl  0xc(%ebp)
  10272d:	8b 45 08             	mov    0x8(%ebp),%eax
  102730:	ff d0                	call   *%eax
  102732:	83 c4 10             	add    $0x10,%esp
  102735:	83 45 cc 01          	addl   $0x1,-0x34(%ebp)
  102739:	8b 45 cc             	mov    -0x34(%ebp),%eax
  10273c:	3b 45 d0             	cmp    -0x30(%ebp),%eax
  10273f:	7c ce                	jl     10270f <genprintf+0x5f9>
  102741:	e9 25 02 00 00       	jmp    10296b <genprintf+0x855>
  102746:	8b 45 10             	mov    0x10(%ebp),%eax
  102749:	0f b6 00             	movzbl (%eax),%eax
  10274c:	3c 68                	cmp    $0x68,%al
  10274e:	0f 85 51 01 00 00    	jne    1028a5 <genprintf+0x78f>
  102754:	83 45 10 01          	addl   $0x1,0x10(%ebp)
  102758:	c7 85 7b ff ff ff 58 	movl   $0x58585858,-0x85(%ebp)
  10275f:	58 58 58 
  102762:	c7 85 7f ff ff ff 58 	movl   $0x58585858,-0x81(%ebp)
  102769:	58 58 58 
  10276c:	c7 45 83 58 58 58 58 	movl   $0x58585858,-0x7d(%ebp)
  102773:	c7 45 87 58 58 58 58 	movl   $0x58585858,-0x79(%ebp)
  10277a:	c7 45 8b 58 58 58 58 	movl   $0x58585858,-0x75(%ebp)
  102781:	c7 45 8f 58 58 58 58 	movl   $0x58585858,-0x71(%ebp)
  102788:	c7 45 93 58 58 58 58 	movl   $0x58585858,-0x6d(%ebp)
  10278f:	c7 45 97 58 58 58 58 	movl   $0x58585858,-0x69(%ebp)
  102796:	c7 45 9b 58 58 58 58 	movl   $0x58585858,-0x65(%ebp)
  10279d:	c7 45 9f 58 58 58 58 	movl   $0x58585858,-0x61(%ebp)
  1027a4:	c7 45 a3 58 58 58 58 	movl   $0x58585858,-0x5d(%ebp)
  1027ab:	c7 45 a7 58 58 58 58 	movl   $0x58585858,-0x59(%ebp)
  1027b2:	c7 45 ab 58 58 58 58 	movl   $0x58585858,-0x55(%ebp)
  1027b9:	c7 45 af 58 58 58 58 	movl   $0x58585858,-0x51(%ebp)
  1027c0:	c7 45 b3 58 58 58 58 	movl   $0x58585858,-0x4d(%ebp)
  1027c7:	c7 45 b7 58 58 58 58 	movl   $0x58585858,-0x49(%ebp)
  1027ce:	8b 45 10             	mov    0x10(%ebp),%eax
  1027d1:	0f b6 00             	movzbl (%eax),%eax
  1027d4:	3c 75                	cmp    $0x75,%al
  1027d6:	75 31                	jne    102809 <genprintf+0x6f3>
  1027d8:	83 45 10 01          	addl   $0x1,0x10(%ebp)
  1027dc:	8b 45 14             	mov    0x14(%ebp),%eax
  1027df:	8d 50 04             	lea    0x4(%eax),%edx
  1027e2:	89 55 14             	mov    %edx,0x14(%ebp)
  1027e5:	8b 00                	mov    (%eax),%eax
  1027e7:	ba 00 00 00 00       	mov    $0x0,%edx
  1027ec:	83 ec 0c             	sub    $0xc,%esp
  1027ef:	6a 10                	push   $0x10
  1027f1:	52                   	push   %edx
  1027f2:	50                   	push   %eax
  1027f3:	6a 40                	push   $0x40
  1027f5:	8d 85 7b ff ff ff    	lea    -0x85(%ebp),%eax
  1027fb:	50                   	push   %eax
  1027fc:	e8 d9 f6 ff ff       	call   101eda <unsignedToString>
  102801:	83 c4 20             	add    $0x20,%esp
  102804:	89 45 c8             	mov    %eax,-0x38(%ebp)
  102807:	eb 27                	jmp    102830 <genprintf+0x71a>
  102809:	8b 45 14             	mov    0x14(%ebp),%eax
  10280c:	8d 50 04             	lea    0x4(%eax),%edx
  10280f:	89 55 14             	mov    %edx,0x14(%ebp)
  102812:	8b 00                	mov    (%eax),%eax
  102814:	99                   	cltd   
  102815:	83 ec 0c             	sub    $0xc,%esp
  102818:	6a 10                	push   $0x10
  10281a:	52                   	push   %edx
  10281b:	50                   	push   %eax
  10281c:	6a 40                	push   $0x40
  10281e:	8d 85 7b ff ff ff    	lea    -0x85(%ebp),%eax
  102824:	50                   	push   %eax
  102825:	e8 81 f8 ff ff       	call   1020ab <signedToString>
  10282a:	83 c4 20             	add    $0x20,%esp
  10282d:	89 45 c8             	mov    %eax,-0x38(%ebp)
  102830:	8b 45 c8             	mov    -0x38(%ebp),%eax
  102833:	83 e8 01             	sub    $0x1,%eax
  102836:	01 45 f4             	add    %eax,-0xc(%ebp)
  102839:	83 7d 08 00          	cmpl   $0x0,0x8(%ebp)
  10283d:	74 10                	je     10284f <genprintf+0x739>
  10283f:	83 ec 08             	sub    $0x8,%esp
  102842:	6a 30                	push   $0x30
  102844:	ff 75 0c             	pushl  0xc(%ebp)
  102847:	8b 45 08             	mov    0x8(%ebp),%eax
  10284a:	ff d0                	call   *%eax
  10284c:	83 c4 10             	add    $0x10,%esp
  10284f:	83 7d 08 00          	cmpl   $0x0,0x8(%ebp)
  102853:	74 10                	je     102865 <genprintf+0x74f>
  102855:	83 ec 08             	sub    $0x8,%esp
  102858:	6a 78                	push   $0x78
  10285a:	ff 75 0c             	pushl  0xc(%ebp)
  10285d:	8b 45 08             	mov    0x8(%ebp),%eax
  102860:	ff d0                	call   *%eax
  102862:	83 c4 10             	add    $0x10,%esp
  102865:	c7 45 c4 00 00 00 00 	movl   $0x0,-0x3c(%ebp)
  10286c:	eb 2a                	jmp    102898 <genprintf+0x782>
  10286e:	83 7d 08 00          	cmpl   $0x0,0x8(%ebp)
  102872:	74 20                	je     102894 <genprintf+0x77e>
  102874:	8d 95 7b ff ff ff    	lea    -0x85(%ebp),%edx
  10287a:	8b 45 c4             	mov    -0x3c(%ebp),%eax
  10287d:	01 d0                	add    %edx,%eax
  10287f:	0f b6 00             	movzbl (%eax),%eax
  102882:	0f be c0             	movsbl %al,%eax
  102885:	83 ec 08             	sub    $0x8,%esp
  102888:	50                   	push   %eax
  102889:	ff 75 0c             	pushl  0xc(%ebp)
  10288c:	8b 45 08             	mov    0x8(%ebp),%eax
  10288f:	ff d0                	call   *%eax
  102891:	83 c4 10             	add    $0x10,%esp
  102894:	83 45 c4 01          	addl   $0x1,-0x3c(%ebp)
  102898:	8b 45 c4             	mov    -0x3c(%ebp),%eax
  10289b:	3b 45 c8             	cmp    -0x38(%ebp),%eax
  10289e:	7c ce                	jl     10286e <genprintf+0x758>
  1028a0:	e9 c6 00 00 00       	jmp    10296b <genprintf+0x855>
  1028a5:	8b 45 10             	mov    0x10(%ebp),%eax
  1028a8:	0f b6 00             	movzbl (%eax),%eax
  1028ab:	3c 63                	cmp    $0x63,%al
  1028ad:	75 34                	jne    1028e3 <genprintf+0x7cd>
  1028af:	83 45 10 01          	addl   $0x1,0x10(%ebp)
  1028b3:	8b 45 14             	mov    0x14(%ebp),%eax
  1028b6:	8d 50 04             	lea    0x4(%eax),%edx
  1028b9:	89 55 14             	mov    %edx,0x14(%ebp)
  1028bc:	8b 00                	mov    (%eax),%eax
  1028be:	88 45 bb             	mov    %al,-0x45(%ebp)
  1028c1:	83 7d 08 00          	cmpl   $0x0,0x8(%ebp)
  1028c5:	74 13                	je     1028da <genprintf+0x7c4>
  1028c7:	0f be 45 bb          	movsbl -0x45(%ebp),%eax
  1028cb:	83 ec 08             	sub    $0x8,%esp
  1028ce:	50                   	push   %eax
  1028cf:	ff 75 0c             	pushl  0xc(%ebp)
  1028d2:	8b 45 08             	mov    0x8(%ebp),%eax
  1028d5:	ff d0                	call   *%eax
  1028d7:	83 c4 10             	add    $0x10,%esp
  1028da:	83 45 f4 01          	addl   $0x1,-0xc(%ebp)
  1028de:	e9 88 00 00 00       	jmp    10296b <genprintf+0x855>
  1028e3:	8b 45 10             	mov    0x10(%ebp),%eax
  1028e6:	0f b6 00             	movzbl (%eax),%eax
  1028e9:	3c 73                	cmp    $0x73,%al
  1028eb:	75 7e                	jne    10296b <genprintf+0x855>
  1028ed:	83 45 10 01          	addl   $0x1,0x10(%ebp)
  1028f1:	c7 45 c0 00 00 00 00 	movl   $0x0,-0x40(%ebp)
  1028f8:	8b 45 14             	mov    0x14(%ebp),%eax
  1028fb:	8d 50 04             	lea    0x4(%eax),%edx
  1028fe:	89 55 14             	mov    %edx,0x14(%ebp)
  102901:	8b 00                	mov    (%eax),%eax
  102903:	89 45 bc             	mov    %eax,-0x44(%ebp)
  102906:	eb 27                	jmp    10292f <genprintf+0x819>
  102908:	83 7d 08 00          	cmpl   $0x0,0x8(%ebp)
  10290c:	74 1d                	je     10292b <genprintf+0x815>
  10290e:	8b 55 c0             	mov    -0x40(%ebp),%edx
  102911:	8b 45 bc             	mov    -0x44(%ebp),%eax
  102914:	01 d0                	add    %edx,%eax
  102916:	0f b6 00             	movzbl (%eax),%eax
  102919:	0f be c0             	movsbl %al,%eax
  10291c:	83 ec 08             	sub    $0x8,%esp
  10291f:	50                   	push   %eax
  102920:	ff 75 0c             	pushl  0xc(%ebp)
  102923:	8b 45 08             	mov    0x8(%ebp),%eax
  102926:	ff d0                	call   *%eax
  102928:	83 c4 10             	add    $0x10,%esp
  10292b:	83 45 c0 01          	addl   $0x1,-0x40(%ebp)
  10292f:	8b 55 c0             	mov    -0x40(%ebp),%edx
  102932:	8b 45 bc             	mov    -0x44(%ebp),%eax
  102935:	01 d0                	add    %edx,%eax
  102937:	0f b6 00             	movzbl (%eax),%eax
  10293a:	84 c0                	test   %al,%al
  10293c:	75 ca                	jne    102908 <genprintf+0x7f2>
  10293e:	8b 45 c0             	mov    -0x40(%ebp),%eax
  102941:	83 e8 01             	sub    $0x1,%eax
  102944:	01 45 f4             	add    %eax,-0xc(%ebp)
  102947:	eb 22                	jmp    10296b <genprintf+0x855>
  102949:	83 7d 08 00          	cmpl   $0x0,0x8(%ebp)
  10294d:	74 18                	je     102967 <genprintf+0x851>
  10294f:	8b 45 10             	mov    0x10(%ebp),%eax
  102952:	0f b6 00             	movzbl (%eax),%eax
  102955:	0f be c0             	movsbl %al,%eax
  102958:	83 ec 08             	sub    $0x8,%esp
  10295b:	50                   	push   %eax
  10295c:	ff 75 0c             	pushl  0xc(%ebp)
  10295f:	8b 45 08             	mov    0x8(%ebp),%eax
  102962:	ff d0                	call   *%eax
  102964:	83 c4 10             	add    $0x10,%esp
  102967:	83 45 10 01          	addl   $0x1,0x10(%ebp)
  10296b:	8b 45 10             	mov    0x10(%ebp),%eax
  10296e:	0f b6 00             	movzbl (%eax),%eax
  102971:	84 c0                	test   %al,%al
  102973:	0f 85 bc f7 ff ff    	jne    102135 <genprintf+0x1f>
  102979:	83 ec 08             	sub    $0x8,%esp
  10297c:	6a 00                	push   $0x0
  10297e:	ff 75 0c             	pushl  0xc(%ebp)
  102981:	8b 45 08             	mov    0x8(%ebp),%eax
  102984:	ff d0                	call   *%eax
  102986:	83 c4 10             	add    $0x10,%esp
  102989:	8b 45 f4             	mov    -0xc(%ebp),%eax
  10298c:	c9                   	leave  
  10298d:	c3                   	ret    

0010298e <kprintf>:
  10298e:	55                   	push   %ebp
  10298f:	89 e5                	mov    %esp,%ebp
  102991:	83 ec 18             	sub    $0x18,%esp
  102994:	e8 28 0f 00 00       	call   1038c1 <__x86.get_pc_thunk.ax>
  102999:	05 87 19 00 00       	add    $0x1987,%eax
  10299e:	8d 45 14             	lea    0x14(%ebp),%eax
  1029a1:	89 45 f4             	mov    %eax,-0xc(%ebp)
  1029a4:	8b 45 f4             	mov    -0xc(%ebp),%eax
  1029a7:	50                   	push   %eax
  1029a8:	ff 75 10             	pushl  0x10(%ebp)
  1029ab:	ff 75 0c             	pushl  0xc(%ebp)
  1029ae:	ff 75 08             	pushl  0x8(%ebp)
  1029b1:	e8 60 f7 ff ff       	call   102116 <genprintf>
  1029b6:	83 c4 10             	add    $0x10,%esp
  1029b9:	90                   	nop
  1029ba:	c9                   	leave  
  1029bb:	c3                   	ret    

001029bc <printf>:
  1029bc:	55                   	push   %ebp
  1029bd:	89 e5                	mov    %esp,%ebp
  1029bf:	83 ec 18             	sub    $0x18,%esp
  1029c2:	e8 fa 0e 00 00       	call   1038c1 <__x86.get_pc_thunk.ax>
  1029c7:	05 59 19 00 00       	add    $0x1959,%eax
  1029cc:	8d 55 10             	lea    0x10(%ebp),%edx
  1029cf:	89 55 f4             	mov    %edx,-0xc(%ebp)
  1029d2:	8b 55 08             	mov    0x8(%ebp),%edx
  1029d5:	89 55 ec             	mov    %edx,-0x14(%ebp)
  1029d8:	c7 45 f0 00 00 00 00 	movl   $0x0,-0x10(%ebp)
  1029df:	8b 55 f4             	mov    -0xc(%ebp),%edx
  1029e2:	52                   	push   %edx
  1029e3:	ff 75 0c             	pushl  0xc(%ebp)
  1029e6:	8d 55 ec             	lea    -0x14(%ebp),%edx
  1029e9:	52                   	push   %edx
  1029ea:	8d 80 d1 d2 ff ff    	lea    -0x2d2f(%eax),%eax
  1029f0:	50                   	push   %eax
  1029f1:	e8 20 f7 ff ff       	call   102116 <genprintf>
  1029f6:	83 c4 10             	add    $0x10,%esp
  1029f9:	90                   	nop
  1029fa:	c9                   	leave  
  1029fb:	c3                   	ret    

001029fc <println>:
  1029fc:	55                   	push   %ebp
  1029fd:	89 e5                	mov    %esp,%ebp
  1029ff:	57                   	push   %edi
  102a00:	53                   	push   %ebx
  102a01:	83 ec 60             	sub    $0x60,%esp
  102a04:	e8 b4 0e 00 00       	call   1038bd <__x86.get_pc_thunk.bx>
  102a09:	81 c3 17 19 00 00    	add    $0x1917,%ebx
  102a0f:	8d 45 0c             	lea    0xc(%ebp),%eax
  102a12:	89 45 f4             	mov    %eax,-0xc(%ebp)
  102a15:	c7 45 a4 58 00 00 00 	movl   $0x58,-0x5c(%ebp)
  102a1c:	8d 55 a8             	lea    -0x58(%ebp),%edx
  102a1f:	b8 00 00 00 00       	mov    $0x0,%eax
  102a24:	b9 13 00 00 00       	mov    $0x13,%ecx
  102a29:	89 d7                	mov    %edx,%edi
  102a2b:	f3 ab                	rep stos %eax,%es:(%edi)
  102a2d:	8d 45 a4             	lea    -0x5c(%ebp),%eax
  102a30:	89 45 9c             	mov    %eax,-0x64(%ebp)
  102a33:	c7 45 a0 00 00 00 00 	movl   $0x0,-0x60(%ebp)
  102a3a:	8b 45 f4             	mov    -0xc(%ebp),%eax
  102a3d:	50                   	push   %eax
  102a3e:	ff 75 08             	pushl  0x8(%ebp)
  102a41:	8d 45 9c             	lea    -0x64(%ebp),%eax
  102a44:	50                   	push   %eax
  102a45:	8d 83 d1 d2 ff ff    	lea    -0x2d2f(%ebx),%eax
  102a4b:	50                   	push   %eax
  102a4c:	e8 c5 f6 ff ff       	call   102116 <genprintf>
  102a51:	83 c4 10             	add    $0x10,%esp
  102a54:	83 ec 0c             	sub    $0xc,%esp
  102a57:	8d 45 a4             	lea    -0x5c(%ebp),%eax
  102a5a:	50                   	push   %eax
  102a5b:	e8 04 ed ff ff       	call   101764 <puts>
  102a60:	83 c4 10             	add    $0x10,%esp
  102a63:	83 ec 0c             	sub    $0xc,%esp
  102a66:	6a 0a                	push   $0xa
  102a68:	e8 4a ef ff ff       	call   1019b7 <putc>
  102a6d:	83 c4 10             	add    $0x10,%esp
  102a70:	90                   	nop
  102a71:	8d 65 f8             	lea    -0x8(%ebp),%esp
  102a74:	5b                   	pop    %ebx
  102a75:	5f                   	pop    %edi
  102a76:	5d                   	pop    %ebp
  102a77:	c3                   	ret    

00102a78 <print>:
  102a78:	55                   	push   %ebp
  102a79:	89 e5                	mov    %esp,%ebp
  102a7b:	57                   	push   %edi
  102a7c:	53                   	push   %ebx
  102a7d:	83 ec 60             	sub    $0x60,%esp
  102a80:	e8 38 0e 00 00       	call   1038bd <__x86.get_pc_thunk.bx>
  102a85:	81 c3 9b 18 00 00    	add    $0x189b,%ebx
  102a8b:	8d 45 0c             	lea    0xc(%ebp),%eax
  102a8e:	89 45 f4             	mov    %eax,-0xc(%ebp)
  102a91:	c7 45 a4 58 00 00 00 	movl   $0x58,-0x5c(%ebp)
  102a98:	8d 55 a8             	lea    -0x58(%ebp),%edx
  102a9b:	b8 00 00 00 00       	mov    $0x0,%eax
  102aa0:	b9 13 00 00 00       	mov    $0x13,%ecx
  102aa5:	89 d7                	mov    %edx,%edi
  102aa7:	f3 ab                	rep stos %eax,%es:(%edi)
  102aa9:	8d 45 a4             	lea    -0x5c(%ebp),%eax
  102aac:	89 45 9c             	mov    %eax,-0x64(%ebp)
  102aaf:	c7 45 a0 00 00 00 00 	movl   $0x0,-0x60(%ebp)
  102ab6:	8b 45 f4             	mov    -0xc(%ebp),%eax
  102ab9:	50                   	push   %eax
  102aba:	ff 75 08             	pushl  0x8(%ebp)
  102abd:	8d 45 9c             	lea    -0x64(%ebp),%eax
  102ac0:	50                   	push   %eax
  102ac1:	8d 83 d1 d2 ff ff    	lea    -0x2d2f(%ebx),%eax
  102ac7:	50                   	push   %eax
  102ac8:	e8 49 f6 ff ff       	call   102116 <genprintf>
  102acd:	83 c4 10             	add    $0x10,%esp
  102ad0:	83 ec 0c             	sub    $0xc,%esp
  102ad3:	8d 45 a4             	lea    -0x5c(%ebp),%eax
  102ad6:	50                   	push   %eax
  102ad7:	e8 88 ec ff ff       	call   101764 <puts>
  102adc:	83 c4 10             	add    $0x10,%esp
  102adf:	90                   	nop
  102ae0:	8d 65 f8             	lea    -0x8(%ebp),%esp
  102ae3:	5b                   	pop    %ebx
  102ae4:	5f                   	pop    %edi
  102ae5:	5d                   	pop    %ebp
  102ae6:	c3                   	ret    

00102ae7 <panic_message>:
  102ae7:	55                   	push   %ebp
  102ae8:	89 e5                	mov    %esp,%ebp
  102aea:	53                   	push   %ebx
  102aeb:	83 ec 14             	sub    $0x14,%esp
  102aee:	e8 ca 0d 00 00       	call   1038bd <__x86.get_pc_thunk.bx>
  102af3:	81 c3 2d 18 00 00    	add    $0x182d,%ebx
  102af9:	83 ec 0c             	sub    $0xc,%esp
  102afc:	8d 83 d9 0d 00 00    	lea    0xdd9(%ebx),%eax
  102b02:	50                   	push   %eax
  102b03:	e8 f4 fe ff ff       	call   1029fc <println>
  102b08:	83 c4 10             	add    $0x10,%esp
  102b0b:	c7 45 f4 00 00 00 00 	movl   $0x0,-0xc(%ebp)
  102b12:	c7 45 f0 00 00 00 00 	movl   $0x0,-0x10(%ebp)
  102b19:	83 7d 08 00          	cmpl   $0x0,0x8(%ebp)
  102b1d:	75 07                	jne    102b26 <panic_message+0x3f>
  102b1f:	89 e8                	mov    %ebp,%eax
  102b21:	89 45 f4             	mov    %eax,-0xc(%ebp)
  102b24:	eb 43                	jmp    102b69 <panic_message+0x82>
  102b26:	8b 45 08             	mov    0x8(%ebp),%eax
  102b29:	89 45 f4             	mov    %eax,-0xc(%ebp)
  102b2c:	eb 3b                	jmp    102b69 <panic_message+0x82>
  102b2e:	8b 45 f4             	mov    -0xc(%ebp),%eax
  102b31:	8b 40 04             	mov    0x4(%eax),%eax
  102b34:	83 ec 04             	sub    $0x4,%esp
  102b37:	50                   	push   %eax
  102b38:	ff 75 f0             	pushl  -0x10(%ebp)
  102b3b:	8d 83 ed 0d 00 00    	lea    0xded(%ebx),%eax
  102b41:	50                   	push   %eax
  102b42:	e8 b5 fe ff ff       	call   1029fc <println>
  102b47:	83 c4 10             	add    $0x10,%esp
  102b4a:	8b 45 f4             	mov    -0xc(%ebp),%eax
  102b4d:	8b 00                	mov    (%eax),%eax
  102b4f:	39 45 f4             	cmp    %eax,-0xc(%ebp)
  102b52:	74 0a                	je     102b5e <panic_message+0x77>
  102b54:	8b 45 f4             	mov    -0xc(%ebp),%eax
  102b57:	8b 00                	mov    (%eax),%eax
  102b59:	89 45 f4             	mov    %eax,-0xc(%ebp)
  102b5c:	eb 07                	jmp    102b65 <panic_message+0x7e>
  102b5e:	c7 45 f4 00 00 00 00 	movl   $0x0,-0xc(%ebp)
  102b65:	83 45 f0 01          	addl   $0x1,-0x10(%ebp)
  102b69:	83 7d f4 00          	cmpl   $0x0,-0xc(%ebp)
  102b6d:	75 bf                	jne    102b2e <panic_message+0x47>
  102b6f:	90                   	nop
  102b70:	90                   	nop
  102b71:	8b 5d fc             	mov    -0x4(%ebp),%ebx
  102b74:	c9                   	leave  
  102b75:	c3                   	ret    

00102b76 <parseLine>:
  102b76:	55                   	push   %ebp
  102b77:	89 e5                	mov    %esp,%ebp
  102b79:	57                   	push   %edi
  102b7a:	81 ec 00 01 00 00    	sub    $0x100,%esp
  102b80:	e8 3c 0d 00 00       	call   1038c1 <__x86.get_pc_thunk.ax>
  102b85:	05 9b 17 00 00       	add    $0x179b,%eax
  102b8a:	c7 45 f8 00 00 00 00 	movl   $0x0,-0x8(%ebp)
  102b91:	8d 95 54 ff ff ff    	lea    -0xac(%ebp),%edx
  102b97:	b8 00 00 00 00       	mov    $0x0,%eax
  102b9c:	b9 28 00 00 00       	mov    $0x28,%ecx
  102ba1:	89 d7                	mov    %edx,%edi
  102ba3:	f3 ab                	rep stos %eax,%es:(%edi)
  102ba5:	c7 85 04 ff ff ff 58 	movl   $0x585858,-0xfc(%ebp)
  102bac:	58 58 00 
  102baf:	8d 95 08 ff ff ff    	lea    -0xf8(%ebp),%edx
  102bb5:	b8 00 00 00 00       	mov    $0x0,%eax
  102bba:	b9 13 00 00 00       	mov    $0x13,%ecx
  102bbf:	89 d7                	mov    %edx,%edi
  102bc1:	f3 ab                	rep stos %eax,%es:(%edi)
  102bc3:	c7 45 f4 00 00 00 00 	movl   $0x0,-0xc(%ebp)
  102bca:	eb 53                	jmp    102c1f <parseLine+0xa9>
  102bcc:	8b 45 08             	mov    0x8(%ebp),%eax
  102bcf:	0f b6 00             	movzbl (%eax),%eax
  102bd2:	84 c0                	test   %al,%al
  102bd4:	74 41                	je     102c17 <parseLine+0xa1>
  102bd6:	8b 45 08             	mov    0x8(%ebp),%eax
  102bd9:	0f b6 00             	movzbl (%eax),%eax
  102bdc:	3c 20                	cmp    $0x20,%al
  102bde:	75 24                	jne    102c04 <parseLine+0x8e>
  102be0:	83 45 f4 01          	addl   $0x1,-0xc(%ebp)
  102be4:	8b 45 f8             	mov    -0x8(%ebp),%eax
  102be7:	8d 50 01             	lea    0x1(%eax),%edx
  102bea:	8b 45 f4             	mov    -0xc(%ebp),%eax
  102bed:	89 94 85 54 ff ff ff 	mov    %edx,-0xac(%ebp,%eax,4)
  102bf4:	8d 95 04 ff ff ff    	lea    -0xfc(%ebp),%edx
  102bfa:	8b 45 f8             	mov    -0x8(%ebp),%eax
  102bfd:	01 d0                	add    %edx,%eax
  102bff:	c6 00 00             	movb   $0x0,(%eax)
  102c02:	eb 13                	jmp    102c17 <parseLine+0xa1>
  102c04:	8b 45 08             	mov    0x8(%ebp),%eax
  102c07:	0f b6 00             	movzbl (%eax),%eax
  102c0a:	8d 8d 04 ff ff ff    	lea    -0xfc(%ebp),%ecx
  102c10:	8b 55 f8             	mov    -0x8(%ebp),%edx
  102c13:	01 ca                	add    %ecx,%edx
  102c15:	88 02                	mov    %al,(%edx)
  102c17:	83 45 08 01          	addl   $0x1,0x8(%ebp)
  102c1b:	83 45 f8 01          	addl   $0x1,-0x8(%ebp)
  102c1f:	8b 45 08             	mov    0x8(%ebp),%eax
  102c22:	0f b6 00             	movzbl (%eax),%eax
  102c25:	84 c0                	test   %al,%al
  102c27:	75 a3                	jne    102bcc <parseLine+0x56>
  102c29:	c7 45 f8 00 00 00 00 	movl   $0x0,-0x8(%ebp)
  102c30:	eb 27                	jmp    102c59 <parseLine+0xe3>
  102c32:	8b 45 f8             	mov    -0x8(%ebp),%eax
  102c35:	8b 94 85 54 ff ff ff 	mov    -0xac(%ebp,%eax,4),%edx
  102c3c:	8b 45 f8             	mov    -0x8(%ebp),%eax
  102c3f:	8d 0c 85 00 00 00 00 	lea    0x0(,%eax,4),%ecx
  102c46:	8b 45 0c             	mov    0xc(%ebp),%eax
  102c49:	01 c8                	add    %ecx,%eax
  102c4b:	8d 8d 04 ff ff ff    	lea    -0xfc(%ebp),%ecx
  102c51:	01 ca                	add    %ecx,%edx
  102c53:	89 10                	mov    %edx,(%eax)
  102c55:	83 45 f8 01          	addl   $0x1,-0x8(%ebp)
  102c59:	8b 45 f8             	mov    -0x8(%ebp),%eax
  102c5c:	3b 45 f4             	cmp    -0xc(%ebp),%eax
  102c5f:	7e d1                	jle    102c32 <parseLine+0xbc>
  102c61:	90                   	nop
  102c62:	90                   	nop
  102c63:	81 c4 00 01 00 00    	add    $0x100,%esp
  102c69:	5f                   	pop    %edi
  102c6a:	5d                   	pop    %ebp
  102c6b:	c3                   	ret    

00102c6c <argslen>:
  102c6c:	55                   	push   %ebp
  102c6d:	89 e5                	mov    %esp,%ebp
  102c6f:	83 ec 10             	sub    $0x10,%esp
  102c72:	e8 4a 0c 00 00       	call   1038c1 <__x86.get_pc_thunk.ax>
  102c77:	05 a9 16 00 00       	add    $0x16a9,%eax
  102c7c:	c7 45 fc 00 00 00 00 	movl   $0x0,-0x4(%ebp)
  102c83:	c7 45 f8 00 00 00 00 	movl   $0x0,-0x8(%ebp)
  102c8a:	eb 1d                	jmp    102ca9 <argslen+0x3d>
  102c8c:	8b 45 f8             	mov    -0x8(%ebp),%eax
  102c8f:	8d 14 85 00 00 00 00 	lea    0x0(,%eax,4),%edx
  102c96:	8b 45 08             	mov    0x8(%ebp),%eax
  102c99:	01 d0                	add    %edx,%eax
  102c9b:	8b 00                	mov    (%eax),%eax
  102c9d:	85 c0                	test   %eax,%eax
  102c9f:	74 04                	je     102ca5 <argslen+0x39>
  102ca1:	83 45 fc 01          	addl   $0x1,-0x4(%ebp)
  102ca5:	83 45 f8 01          	addl   $0x1,-0x8(%ebp)
  102ca9:	8b 45 f8             	mov    -0x8(%ebp),%eax
  102cac:	3b 45 0c             	cmp    0xc(%ebp),%eax
  102caf:	7c db                	jl     102c8c <argslen+0x20>
  102cb1:	8b 45 fc             	mov    -0x4(%ebp),%eax
  102cb4:	c9                   	leave  
  102cb5:	c3                   	ret    

00102cb6 <proccedCommand>:
  102cb6:	55                   	push   %ebp
  102cb7:	89 e5                	mov    %esp,%ebp
  102cb9:	57                   	push   %edi
  102cba:	53                   	push   %ebx
  102cbb:	81 ec 70 01 00 00    	sub    $0x170,%esp
  102cc1:	e8 f7 0b 00 00       	call   1038bd <__x86.get_pc_thunk.bx>
  102cc6:	81 c3 5a 16 00 00    	add    $0x165a,%ebx
  102ccc:	83 ec 0c             	sub    $0xc,%esp
  102ccf:	6a 0a                	push   $0xa
  102cd1:	e8 e1 ec ff ff       	call   1019b7 <putc>
  102cd6:	83 c4 10             	add    $0x10,%esp
  102cd9:	8d 95 90 fe ff ff    	lea    -0x170(%ebp),%edx
  102cdf:	b8 00 00 00 00       	mov    $0x0,%eax
  102ce4:	b9 50 00 00 00       	mov    $0x50,%ecx
  102ce9:	89 d7                	mov    %edx,%edi
  102ceb:	f3 ab                	rep stos %eax,%es:(%edi)
  102ced:	8d 83 f4 0d 00 00    	lea    0xdf4(%ebx),%eax
  102cf3:	89 85 90 fe ff ff    	mov    %eax,-0x170(%ebp)
  102cf9:	83 ec 08             	sub    $0x8,%esp
  102cfc:	8d 85 90 fe ff ff    	lea    -0x170(%ebp),%eax
  102d02:	50                   	push   %eax
  102d03:	ff 75 08             	pushl  0x8(%ebp)
  102d06:	e8 6b fe ff ff       	call   102b76 <parseLine>
  102d0b:	83 c4 10             	add    $0x10,%esp
  102d0e:	8b 85 90 fe ff ff    	mov    -0x170(%ebp),%eax
  102d14:	83 ec 08             	sub    $0x8,%esp
  102d17:	8d 93 f9 0d 00 00    	lea    0xdf9(%ebx),%edx
  102d1d:	52                   	push   %edx
  102d1e:	50                   	push   %eax
  102d1f:	e8 12 f0 ff ff       	call   101d36 <contains>
  102d24:	83 c4 10             	add    $0x10,%esp
  102d27:	85 c0                	test   %eax,%eax
  102d29:	0f 84 93 00 00 00    	je     102dc2 <proccedCommand+0x10c>
  102d2f:	8b 85 94 fe ff ff    	mov    -0x16c(%ebp),%eax
  102d35:	85 c0                	test   %eax,%eax
  102d37:	74 46                	je     102d7f <proccedCommand+0xc9>
  102d39:	c7 45 f4 01 00 00 00 	movl   $0x1,-0xc(%ebp)
  102d40:	eb 35                	jmp    102d77 <proccedCommand+0xc1>
  102d42:	8b 45 f4             	mov    -0xc(%ebp),%eax
  102d45:	8b 84 85 90 fe ff ff 	mov    -0x170(%ebp,%eax,4),%eax
  102d4c:	85 c0                	test   %eax,%eax
  102d4e:	74 23                	je     102d73 <proccedCommand+0xbd>
  102d50:	8b 45 f4             	mov    -0xc(%ebp),%eax
  102d53:	8b 84 85 90 fe ff ff 	mov    -0x170(%ebp,%eax,4),%eax
  102d5a:	83 ec 0c             	sub    $0xc,%esp
  102d5d:	50                   	push   %eax
  102d5e:	e8 01 ea ff ff       	call   101764 <puts>
  102d63:	83 c4 10             	add    $0x10,%esp
  102d66:	83 ec 0c             	sub    $0xc,%esp
  102d69:	6a 20                	push   $0x20
  102d6b:	e8 47 ec ff ff       	call   1019b7 <putc>
  102d70:	83 c4 10             	add    $0x10,%esp
  102d73:	83 45 f4 01          	addl   $0x1,-0xc(%ebp)
  102d77:	83 7d f4 4f          	cmpl   $0x4f,-0xc(%ebp)
  102d7b:	7e c5                	jle    102d42 <proccedCommand+0x8c>
  102d7d:	eb 31                	jmp    102db0 <proccedCommand+0xfa>
  102d7f:	83 ec 0c             	sub    $0xc,%esp
  102d82:	8d 83 fe 0d 00 00    	lea    0xdfe(%ebx),%eax
  102d88:	50                   	push   %eax
  102d89:	e8 ea fc ff ff       	call   102a78 <print>
  102d8e:	83 c4 10             	add    $0x10,%esp
  102d91:	83 ec 0c             	sub    $0xc,%esp
  102d94:	6a 02                	push   $0x2
  102d96:	e8 e0 e8 ff ff       	call   10167b <setTextColor>
  102d9b:	83 c4 10             	add    $0x10,%esp
  102d9e:	83 ec 0c             	sub    $0xc,%esp
  102da1:	8d 83 05 0e 00 00    	lea    0xe05(%ebx),%eax
  102da7:	50                   	push   %eax
  102da8:	e8 cb fc ff ff       	call   102a78 <print>
  102dad:	83 c4 10             	add    $0x10,%esp
  102db0:	83 ec 0c             	sub    $0xc,%esp
  102db3:	6a 0a                	push   $0xa
  102db5:	e8 fd eb ff ff       	call   1019b7 <putc>
  102dba:	83 c4 10             	add    $0x10,%esp
  102dbd:	e9 43 04 00 00       	jmp    103205 <proccedCommand+0x54f>
  102dc2:	8b 85 90 fe ff ff    	mov    -0x170(%ebp),%eax
  102dc8:	83 ec 08             	sub    $0x8,%esp
  102dcb:	8d 93 14 0e 00 00    	lea    0xe14(%ebx),%edx
  102dd1:	52                   	push   %edx
  102dd2:	50                   	push   %eax
  102dd3:	e8 5e ef ff ff       	call   101d36 <contains>
  102dd8:	83 c4 10             	add    $0x10,%esp
  102ddb:	85 c0                	test   %eax,%eax
  102ddd:	74 3b                	je     102e1a <proccedCommand+0x164>
  102ddf:	83 ec 0c             	sub    $0xc,%esp
  102de2:	8d 83 1c 0e 00 00    	lea    0xe1c(%ebx),%eax
  102de8:	50                   	push   %eax
  102de9:	e8 0e fc ff ff       	call   1029fc <println>
  102dee:	83 c4 10             	add    $0x10,%esp
  102df1:	83 ec 0c             	sub    $0xc,%esp
  102df4:	8d 83 68 0e 00 00    	lea    0xe68(%ebx),%eax
  102dfa:	50                   	push   %eax
  102dfb:	e8 fc fb ff ff       	call   1029fc <println>
  102e00:	83 c4 10             	add    $0x10,%esp
  102e03:	83 ec 0c             	sub    $0xc,%esp
  102e06:	8d 83 b4 0e 00 00    	lea    0xeb4(%ebx),%eax
  102e0c:	50                   	push   %eax
  102e0d:	e8 ea fb ff ff       	call   1029fc <println>
  102e12:	83 c4 10             	add    $0x10,%esp
  102e15:	e9 eb 03 00 00       	jmp    103205 <proccedCommand+0x54f>
  102e1a:	8b 85 90 fe ff ff    	mov    -0x170(%ebp),%eax
  102e20:	83 ec 08             	sub    $0x8,%esp
  102e23:	8d 93 fd 0e 00 00    	lea    0xefd(%ebx),%edx
  102e29:	52                   	push   %edx
  102e2a:	50                   	push   %eax
  102e2b:	e8 06 ef ff ff       	call   101d36 <contains>
  102e30:	83 c4 10             	add    $0x10,%esp
  102e33:	85 c0                	test   %eax,%eax
  102e35:	74 7b                	je     102eb2 <proccedCommand+0x1fc>
  102e37:	8b 85 94 fe ff ff    	mov    -0x16c(%ebp),%eax
  102e3d:	83 ec 0c             	sub    $0xc,%esp
  102e40:	50                   	push   %eax
  102e41:	e8 b8 ef ff ff       	call   101dfe <strtoint>
  102e46:	83 c4 10             	add    $0x10,%esp
  102e49:	89 45 d4             	mov    %eax,-0x2c(%ebp)
  102e4c:	8b 85 98 fe ff ff    	mov    -0x168(%ebp),%eax
  102e52:	83 ec 0c             	sub    $0xc,%esp
  102e55:	50                   	push   %eax
  102e56:	e8 a3 ef ff ff       	call   101dfe <strtoint>
  102e5b:	83 c4 10             	add    $0x10,%esp
  102e5e:	89 45 d0             	mov    %eax,-0x30(%ebp)
  102e61:	8b 85 9c fe ff ff    	mov    -0x164(%ebp),%eax
  102e67:	85 c0                	test   %eax,%eax
  102e69:	74 27                	je     102e92 <proccedCommand+0x1dc>
  102e6b:	8b 55 d4             	mov    -0x2c(%ebp),%edx
  102e6e:	8b 45 d0             	mov    -0x30(%ebp),%eax
  102e71:	01 c2                	add    %eax,%edx
  102e73:	8b 85 9c fe ff ff    	mov    -0x164(%ebp),%eax
  102e79:	83 ec 04             	sub    $0x4,%esp
  102e7c:	52                   	push   %edx
  102e7d:	50                   	push   %eax
  102e7e:	8d 83 01 0f 00 00    	lea    0xf01(%ebx),%eax
  102e84:	50                   	push   %eax
  102e85:	e8 72 fb ff ff       	call   1029fc <println>
  102e8a:	83 c4 10             	add    $0x10,%esp
  102e8d:	e9 73 03 00 00       	jmp    103205 <proccedCommand+0x54f>
  102e92:	8b 55 d4             	mov    -0x2c(%ebp),%edx
  102e95:	8b 45 d0             	mov    -0x30(%ebp),%eax
  102e98:	01 d0                	add    %edx,%eax
  102e9a:	83 ec 08             	sub    $0x8,%esp
  102e9d:	50                   	push   %eax
  102e9e:	8d 83 07 0f 00 00    	lea    0xf07(%ebx),%eax
  102ea4:	50                   	push   %eax
  102ea5:	e8 52 fb ff ff       	call   1029fc <println>
  102eaa:	83 c4 10             	add    $0x10,%esp
  102ead:	e9 53 03 00 00       	jmp    103205 <proccedCommand+0x54f>
  102eb2:	8b 85 90 fe ff ff    	mov    -0x170(%ebp),%eax
  102eb8:	83 ec 08             	sub    $0x8,%esp
  102ebb:	8d 93 0a 0f 00 00    	lea    0xf0a(%ebx),%edx
  102ec1:	52                   	push   %edx
  102ec2:	50                   	push   %eax
  102ec3:	e8 6e ee ff ff       	call   101d36 <contains>
  102ec8:	83 c4 10             	add    $0x10,%esp
  102ecb:	85 c0                	test   %eax,%eax
  102ecd:	74 79                	je     102f48 <proccedCommand+0x292>
  102ecf:	8b 85 94 fe ff ff    	mov    -0x16c(%ebp),%eax
  102ed5:	83 ec 0c             	sub    $0xc,%esp
  102ed8:	50                   	push   %eax
  102ed9:	e8 20 ef ff ff       	call   101dfe <strtoint>
  102ede:	83 c4 10             	add    $0x10,%esp
  102ee1:	89 45 dc             	mov    %eax,-0x24(%ebp)
  102ee4:	8b 85 98 fe ff ff    	mov    -0x168(%ebp),%eax
  102eea:	83 ec 0c             	sub    $0xc,%esp
  102eed:	50                   	push   %eax
  102eee:	e8 0b ef ff ff       	call   101dfe <strtoint>
  102ef3:	83 c4 10             	add    $0x10,%esp
  102ef6:	89 45 d8             	mov    %eax,-0x28(%ebp)
  102ef9:	8b 85 9c fe ff ff    	mov    -0x164(%ebp),%eax
  102eff:	85 c0                	test   %eax,%eax
  102f01:	74 27                	je     102f2a <proccedCommand+0x274>
  102f03:	8b 45 dc             	mov    -0x24(%ebp),%eax
  102f06:	2b 45 d8             	sub    -0x28(%ebp),%eax
  102f09:	89 c2                	mov    %eax,%edx
  102f0b:	8b 85 9c fe ff ff    	mov    -0x164(%ebp),%eax
  102f11:	83 ec 04             	sub    $0x4,%esp
  102f14:	52                   	push   %edx
  102f15:	50                   	push   %eax
  102f16:	8d 83 01 0f 00 00    	lea    0xf01(%ebx),%eax
  102f1c:	50                   	push   %eax
  102f1d:	e8 da fa ff ff       	call   1029fc <println>
  102f22:	83 c4 10             	add    $0x10,%esp
  102f25:	e9 db 02 00 00       	jmp    103205 <proccedCommand+0x54f>
  102f2a:	8b 45 dc             	mov    -0x24(%ebp),%eax
  102f2d:	2b 45 d8             	sub    -0x28(%ebp),%eax
  102f30:	83 ec 08             	sub    $0x8,%esp
  102f33:	50                   	push   %eax
  102f34:	8d 83 07 0f 00 00    	lea    0xf07(%ebx),%eax
  102f3a:	50                   	push   %eax
  102f3b:	e8 bc fa ff ff       	call   1029fc <println>
  102f40:	83 c4 10             	add    $0x10,%esp
  102f43:	e9 bd 02 00 00       	jmp    103205 <proccedCommand+0x54f>
  102f48:	8b 85 90 fe ff ff    	mov    -0x170(%ebp),%eax
  102f4e:	83 ec 08             	sub    $0x8,%esp
  102f51:	8d 93 0e 0f 00 00    	lea    0xf0e(%ebx),%edx
  102f57:	52                   	push   %edx
  102f58:	50                   	push   %eax
  102f59:	e8 d8 ed ff ff       	call   101d36 <contains>
  102f5e:	83 c4 10             	add    $0x10,%esp
  102f61:	85 c0                	test   %eax,%eax
  102f63:	74 7b                	je     102fe0 <proccedCommand+0x32a>
  102f65:	8b 85 94 fe ff ff    	mov    -0x16c(%ebp),%eax
  102f6b:	83 ec 0c             	sub    $0xc,%esp
  102f6e:	50                   	push   %eax
  102f6f:	e8 8a ee ff ff       	call   101dfe <strtoint>
  102f74:	83 c4 10             	add    $0x10,%esp
  102f77:	89 45 e4             	mov    %eax,-0x1c(%ebp)
  102f7a:	8b 85 98 fe ff ff    	mov    -0x168(%ebp),%eax
  102f80:	83 ec 0c             	sub    $0xc,%esp
  102f83:	50                   	push   %eax
  102f84:	e8 75 ee ff ff       	call   101dfe <strtoint>
  102f89:	83 c4 10             	add    $0x10,%esp
  102f8c:	89 45 e0             	mov    %eax,-0x20(%ebp)
  102f8f:	8b 85 9c fe ff ff    	mov    -0x164(%ebp),%eax
  102f95:	85 c0                	test   %eax,%eax
  102f97:	74 28                	je     102fc1 <proccedCommand+0x30b>
  102f99:	8b 45 e4             	mov    -0x1c(%ebp),%eax
  102f9c:	0f af 45 e0          	imul   -0x20(%ebp),%eax
  102fa0:	89 c2                	mov    %eax,%edx
  102fa2:	8b 85 9c fe ff ff    	mov    -0x164(%ebp),%eax
  102fa8:	83 ec 04             	sub    $0x4,%esp
  102fab:	52                   	push   %edx
  102fac:	50                   	push   %eax
  102fad:	8d 83 01 0f 00 00    	lea    0xf01(%ebx),%eax
  102fb3:	50                   	push   %eax
  102fb4:	e8 43 fa ff ff       	call   1029fc <println>
  102fb9:	83 c4 10             	add    $0x10,%esp
  102fbc:	e9 44 02 00 00       	jmp    103205 <proccedCommand+0x54f>
  102fc1:	8b 45 e4             	mov    -0x1c(%ebp),%eax
  102fc4:	0f af 45 e0          	imul   -0x20(%ebp),%eax
  102fc8:	83 ec 08             	sub    $0x8,%esp
  102fcb:	50                   	push   %eax
  102fcc:	8d 83 07 0f 00 00    	lea    0xf07(%ebx),%eax
  102fd2:	50                   	push   %eax
  102fd3:	e8 24 fa ff ff       	call   1029fc <println>
  102fd8:	83 c4 10             	add    $0x10,%esp
  102fdb:	e9 25 02 00 00       	jmp    103205 <proccedCommand+0x54f>
  102fe0:	8b 85 90 fe ff ff    	mov    -0x170(%ebp),%eax
  102fe6:	83 ec 08             	sub    $0x8,%esp
  102fe9:	8d 93 12 0f 00 00    	lea    0xf12(%ebx),%edx
  102fef:	52                   	push   %edx
  102ff0:	50                   	push   %eax
  102ff1:	e8 40 ed ff ff       	call   101d36 <contains>
  102ff6:	83 c4 10             	add    $0x10,%esp
  102ff9:	85 c0                	test   %eax,%eax
  102ffb:	74 7b                	je     103078 <proccedCommand+0x3c2>
  102ffd:	8b 85 94 fe ff ff    	mov    -0x16c(%ebp),%eax
  103003:	83 ec 0c             	sub    $0xc,%esp
  103006:	50                   	push   %eax
  103007:	e8 f2 ed ff ff       	call   101dfe <strtoint>
  10300c:	83 c4 10             	add    $0x10,%esp
  10300f:	89 45 ec             	mov    %eax,-0x14(%ebp)
  103012:	8b 85 98 fe ff ff    	mov    -0x168(%ebp),%eax
  103018:	83 ec 0c             	sub    $0xc,%esp
  10301b:	50                   	push   %eax
  10301c:	e8 dd ed ff ff       	call   101dfe <strtoint>
  103021:	83 c4 10             	add    $0x10,%esp
  103024:	89 45 e8             	mov    %eax,-0x18(%ebp)
  103027:	8b 85 9c fe ff ff    	mov    -0x164(%ebp),%eax
  10302d:	85 c0                	test   %eax,%eax
  10302f:	74 28                	je     103059 <proccedCommand+0x3a3>
  103031:	8b 45 ec             	mov    -0x14(%ebp),%eax
  103034:	99                   	cltd   
  103035:	f7 7d e8             	idivl  -0x18(%ebp)
  103038:	89 c2                	mov    %eax,%edx
  10303a:	8b 85 9c fe ff ff    	mov    -0x164(%ebp),%eax
  103040:	83 ec 04             	sub    $0x4,%esp
  103043:	52                   	push   %edx
  103044:	50                   	push   %eax
  103045:	8d 83 01 0f 00 00    	lea    0xf01(%ebx),%eax
  10304b:	50                   	push   %eax
  10304c:	e8 ab f9 ff ff       	call   1029fc <println>
  103051:	83 c4 10             	add    $0x10,%esp
  103054:	e9 ac 01 00 00       	jmp    103205 <proccedCommand+0x54f>
  103059:	8b 45 ec             	mov    -0x14(%ebp),%eax
  10305c:	99                   	cltd   
  10305d:	f7 7d e8             	idivl  -0x18(%ebp)
  103060:	83 ec 08             	sub    $0x8,%esp
  103063:	50                   	push   %eax
  103064:	8d 83 07 0f 00 00    	lea    0xf07(%ebx),%eax
  10306a:	50                   	push   %eax
  10306b:	e8 8c f9 ff ff       	call   1029fc <println>
  103070:	83 c4 10             	add    $0x10,%esp
  103073:	e9 8d 01 00 00       	jmp    103205 <proccedCommand+0x54f>
  103078:	8b 85 90 fe ff ff    	mov    -0x170(%ebp),%eax
  10307e:	83 ec 08             	sub    $0x8,%esp
  103081:	8d 93 16 0f 00 00    	lea    0xf16(%ebx),%edx
  103087:	52                   	push   %edx
  103088:	50                   	push   %eax
  103089:	e8 a8 ec ff ff       	call   101d36 <contains>
  10308e:	83 c4 10             	add    $0x10,%esp
  103091:	85 c0                	test   %eax,%eax
  103093:	0f 84 22 01 00 00    	je     1031bb <proccedCommand+0x505>
  103099:	8b 85 98 fe ff ff    	mov    -0x168(%ebp),%eax
  10309f:	83 ec 08             	sub    $0x8,%esp
  1030a2:	8d 93 19 0f 00 00    	lea    0xf19(%ebx),%edx
  1030a8:	52                   	push   %edx
  1030a9:	50                   	push   %eax
  1030aa:	e8 87 ec ff ff       	call   101d36 <contains>
  1030af:	83 c4 10             	add    $0x10,%esp
  1030b2:	85 c0                	test   %eax,%eax
  1030b4:	0f 84 4b 01 00 00    	je     103205 <proccedCommand+0x54f>
  1030ba:	c7 45 f0 03 00 00 00 	movl   $0x3,-0x10(%ebp)
  1030c1:	8b 95 9c fe ff ff    	mov    -0x164(%ebp),%edx
  1030c7:	8b 85 94 fe ff ff    	mov    -0x16c(%ebp),%eax
  1030cd:	83 ec 08             	sub    $0x8,%esp
  1030d0:	52                   	push   %edx
  1030d1:	50                   	push   %eax
  1030d2:	e8 5f ec ff ff       	call   101d36 <contains>
  1030d7:	83 c4 10             	add    $0x10,%esp
  1030da:	85 c0                	test   %eax,%eax
  1030dc:	74 5c                	je     10313a <proccedCommand+0x484>
  1030de:	eb 16                	jmp    1030f6 <proccedCommand+0x440>
  1030e0:	8b 45 f0             	mov    -0x10(%ebp),%eax
  1030e3:	8b 84 85 90 fe ff ff 	mov    -0x170(%ebp,%eax,4),%eax
  1030ea:	83 ec 0c             	sub    $0xc,%esp
  1030ed:	50                   	push   %eax
  1030ee:	e8 85 f9 ff ff       	call   102a78 <print>
  1030f3:	83 c4 10             	add    $0x10,%esp
  1030f6:	8b 45 f0             	mov    -0x10(%ebp),%eax
  1030f9:	8d 50 01             	lea    0x1(%eax),%edx
  1030fc:	89 55 f0             	mov    %edx,-0x10(%ebp)
  1030ff:	8b 84 85 90 fe ff ff 	mov    -0x170(%ebp,%eax,4),%eax
  103106:	83 ec 08             	sub    $0x8,%esp
  103109:	8d 93 20 0f 00 00    	lea    0xf20(%ebx),%edx
  10310f:	52                   	push   %edx
  103110:	50                   	push   %eax
  103111:	e8 20 ec ff ff       	call   101d36 <contains>
  103116:	83 c4 10             	add    $0x10,%esp
  103119:	85 c0                	test   %eax,%eax
  10311b:	0f 85 e4 00 00 00    	jne    103205 <proccedCommand+0x54f>
  103121:	8b 45 f0             	mov    -0x10(%ebp),%eax
  103124:	8d 50 01             	lea    0x1(%eax),%edx
  103127:	89 55 f0             	mov    %edx,-0x10(%ebp)
  10312a:	8b 84 85 90 fe ff ff 	mov    -0x170(%ebp,%eax,4),%eax
  103131:	85 c0                	test   %eax,%eax
  103133:	75 ab                	jne    1030e0 <proccedCommand+0x42a>
  103135:	e9 cb 00 00 00       	jmp    103205 <proccedCommand+0x54f>
  10313a:	90                   	nop
  10313b:	8b 45 f0             	mov    -0x10(%ebp),%eax
  10313e:	8d 50 01             	lea    0x1(%eax),%edx
  103141:	89 55 f0             	mov    %edx,-0x10(%ebp)
  103144:	8b 84 85 90 fe ff ff 	mov    -0x170(%ebp,%eax,4),%eax
  10314b:	83 ec 08             	sub    $0x8,%esp
  10314e:	8d 93 20 0f 00 00    	lea    0xf20(%ebx),%edx
  103154:	52                   	push   %edx
  103155:	50                   	push   %eax
  103156:	e8 db eb ff ff       	call   101d36 <contains>
  10315b:	83 c4 10             	add    $0x10,%esp
  10315e:	85 c0                	test   %eax,%eax
  103160:	74 14                	je     103176 <proccedCommand+0x4c0>
  103162:	8b 45 f0             	mov    -0x10(%ebp),%eax
  103165:	8d 50 01             	lea    0x1(%eax),%edx
  103168:	89 55 f0             	mov    %edx,-0x10(%ebp)
  10316b:	8b 84 85 90 fe ff ff 	mov    -0x170(%ebp,%eax,4),%eax
  103172:	85 c0                	test   %eax,%eax
  103174:	75 c5                	jne    10313b <proccedCommand+0x485>
  103176:	83 45 f0 01          	addl   $0x1,-0x10(%ebp)
  10317a:	eb 2b                	jmp    1031a7 <proccedCommand+0x4f1>
  10317c:	83 ec 08             	sub    $0x8,%esp
  10317f:	ff 75 f0             	pushl  -0x10(%ebp)
  103182:	8d 83 07 0f 00 00    	lea    0xf07(%ebx),%eax
  103188:	50                   	push   %eax
  103189:	e8 6e f8 ff ff       	call   1029fc <println>
  10318e:	83 c4 10             	add    $0x10,%esp
  103191:	8b 45 f0             	mov    -0x10(%ebp),%eax
  103194:	8b 84 85 90 fe ff ff 	mov    -0x170(%ebp,%eax,4),%eax
  10319b:	83 ec 0c             	sub    $0xc,%esp
  10319e:	50                   	push   %eax
  10319f:	e8 d4 f8 ff ff       	call   102a78 <print>
  1031a4:	83 c4 10             	add    $0x10,%esp
  1031a7:	83 45 f0 01          	addl   $0x1,-0x10(%ebp)
  1031ab:	8b 45 f0             	mov    -0x10(%ebp),%eax
  1031ae:	8b 84 85 90 fe ff ff 	mov    -0x170(%ebp,%eax,4),%eax
  1031b5:	85 c0                	test   %eax,%eax
  1031b7:	75 c3                	jne    10317c <proccedCommand+0x4c6>
  1031b9:	eb 4a                	jmp    103205 <proccedCommand+0x54f>
  1031bb:	8b 85 90 fe ff ff    	mov    -0x170(%ebp),%eax
  1031c1:	83 ec 08             	sub    $0x8,%esp
  1031c4:	50                   	push   %eax
  1031c5:	8d 83 28 0f 00 00    	lea    0xf28(%ebx),%eax
  1031cb:	50                   	push   %eax
  1031cc:	e8 2b f8 ff ff       	call   1029fc <println>
  1031d1:	83 c4 10             	add    $0x10,%esp
  1031d4:	83 ec 0c             	sub    $0xc,%esp
  1031d7:	8d 83 47 0f 00 00    	lea    0xf47(%ebx),%eax
  1031dd:	50                   	push   %eax
  1031de:	e8 81 e5 ff ff       	call   101764 <puts>
  1031e3:	83 c4 10             	add    $0x10,%esp
  1031e6:	83 ec 0c             	sub    $0xc,%esp
  1031e9:	6a 02                	push   $0x2
  1031eb:	e8 8b e4 ff ff       	call   10167b <setTextColor>
  1031f0:	83 c4 10             	add    $0x10,%esp
  1031f3:	83 ec 0c             	sub    $0xc,%esp
  1031f6:	8d 83 14 0e 00 00    	lea    0xe14(%ebx),%eax
  1031fc:	50                   	push   %eax
  1031fd:	e8 62 e5 ff ff       	call   101764 <puts>
  103202:	83 c4 10             	add    $0x10,%esp
  103205:	90                   	nop
  103206:	8d 65 f8             	lea    -0x8(%ebp),%esp
  103209:	5b                   	pop    %ebx
  10320a:	5f                   	pop    %edi
  10320b:	5d                   	pop    %ebp
  10320c:	c3                   	ret    

0010320d <pmm_mark_used>:
  10320d:	55                   	push   %ebp
  10320e:	89 e5                	mov    %esp,%ebp
  103210:	56                   	push   %esi
  103211:	53                   	push   %ebx
  103212:	83 ec 10             	sub    $0x10,%esp
  103215:	e8 a7 06 00 00       	call   1038c1 <__x86.get_pc_thunk.ax>
  10321a:	05 06 11 00 00       	add    $0x1106,%eax
  10321f:	8b 55 08             	mov    0x8(%ebp),%edx
  103222:	c1 ea 0c             	shr    $0xc,%edx
  103225:	89 55 f4             	mov    %edx,-0xc(%ebp)
  103228:	8b 55 f4             	mov    -0xc(%ebp),%edx
  10322b:	c1 ea 05             	shr    $0x5,%edx
  10322e:	8b 9c 90 40 3d 00 00 	mov    0x3d40(%eax,%edx,4),%ebx
  103235:	8b 4d f4             	mov    -0xc(%ebp),%ecx
  103238:	83 e1 1f             	and    $0x1f,%ecx
  10323b:	be 01 00 00 00       	mov    $0x1,%esi
  103240:	d3 e6                	shl    %cl,%esi
  103242:	89 f1                	mov    %esi,%ecx
  103244:	f7 d1                	not    %ecx
  103246:	21 d9                	and    %ebx,%ecx
  103248:	89 8c 90 40 3d 00 00 	mov    %ecx,0x3d40(%eax,%edx,4)
  10324f:	90                   	nop
  103250:	83 c4 10             	add    $0x10,%esp
  103253:	5b                   	pop    %ebx
  103254:	5e                   	pop    %esi
  103255:	5d                   	pop    %ebp
  103256:	c3                   	ret    

00103257 <pmm_alloc>:
  103257:	55                   	push   %ebp
  103258:	89 e5                	mov    %esp,%ebp
  10325a:	56                   	push   %esi
  10325b:	53                   	push   %ebx
  10325c:	83 ec 10             	sub    $0x10,%esp
  10325f:	e8 5d 06 00 00       	call   1038c1 <__x86.get_pc_thunk.ax>
  103264:	05 bc 10 00 00       	add    $0x10bc,%eax
  103269:	c7 45 f4 00 00 00 00 	movl   $0x0,-0xc(%ebp)
  103270:	eb 7d                	jmp    1032ef <pmm_alloc+0x98>
  103272:	8b 55 f4             	mov    -0xc(%ebp),%edx
  103275:	8b 94 90 40 3d 00 00 	mov    0x3d40(%eax,%edx,4),%edx
  10327c:	85 d2                	test   %edx,%edx
  10327e:	74 6b                	je     1032eb <pmm_alloc+0x94>
  103280:	c7 45 f0 00 00 00 00 	movl   $0x0,-0x10(%ebp)
  103287:	eb 5c                	jmp    1032e5 <pmm_alloc+0x8e>
  103289:	8b 55 f4             	mov    -0xc(%ebp),%edx
  10328c:	8b 9c 90 40 3d 00 00 	mov    0x3d40(%eax,%edx,4),%ebx
  103293:	8b 55 f0             	mov    -0x10(%ebp),%edx
  103296:	be 01 00 00 00       	mov    $0x1,%esi
  10329b:	89 d1                	mov    %edx,%ecx
  10329d:	d3 e6                	shl    %cl,%esi
  10329f:	89 f2                	mov    %esi,%edx
  1032a1:	21 da                	and    %ebx,%edx
  1032a3:	85 d2                	test   %edx,%edx
  1032a5:	74 3a                	je     1032e1 <pmm_alloc+0x8a>
  1032a7:	8b 55 f4             	mov    -0xc(%ebp),%edx
  1032aa:	8b 9c 90 40 3d 00 00 	mov    0x3d40(%eax,%edx,4),%ebx
  1032b1:	8b 55 f0             	mov    -0x10(%ebp),%edx
  1032b4:	be 01 00 00 00       	mov    $0x1,%esi
  1032b9:	89 d1                	mov    %edx,%ecx
  1032bb:	d3 e6                	shl    %cl,%esi
  1032bd:	89 f2                	mov    %esi,%edx
  1032bf:	f7 d2                	not    %edx
  1032c1:	21 d3                	and    %edx,%ebx
  1032c3:	89 d9                	mov    %ebx,%ecx
  1032c5:	8b 55 f4             	mov    -0xc(%ebp),%edx
  1032c8:	89 8c 90 40 3d 00 00 	mov    %ecx,0x3d40(%eax,%edx,4)
  1032cf:	8b 45 f4             	mov    -0xc(%ebp),%eax
  1032d2:	c1 e0 05             	shl    $0x5,%eax
  1032d5:	89 c2                	mov    %eax,%edx
  1032d7:	8b 45 f0             	mov    -0x10(%ebp),%eax
  1032da:	01 d0                	add    %edx,%eax
  1032dc:	c1 e0 0c             	shl    $0xc,%eax
  1032df:	eb 20                	jmp    103301 <pmm_alloc+0xaa>
  1032e1:	83 45 f0 01          	addl   $0x1,-0x10(%ebp)
  1032e5:	83 7d f0 1f          	cmpl   $0x1f,-0x10(%ebp)
  1032e9:	7e 9e                	jle    103289 <pmm_alloc+0x32>
  1032eb:	83 45 f4 01          	addl   $0x1,-0xc(%ebp)
  1032ef:	81 7d f4 ff 7f 00 00 	cmpl   $0x7fff,-0xc(%ebp)
  1032f6:	0f 8e 76 ff ff ff    	jle    103272 <pmm_alloc+0x1b>
  1032fc:	b8 00 00 00 00       	mov    $0x0,%eax
  103301:	83 c4 10             	add    $0x10,%esp
  103304:	5b                   	pop    %ebx
  103305:	5e                   	pop    %esi
  103306:	5d                   	pop    %ebp
  103307:	c3                   	ret    

00103308 <pmm_free>:
  103308:	55                   	push   %ebp
  103309:	89 e5                	mov    %esp,%ebp
  10330b:	56                   	push   %esi
  10330c:	53                   	push   %ebx
  10330d:	83 ec 10             	sub    $0x10,%esp
  103310:	e8 ac 05 00 00       	call   1038c1 <__x86.get_pc_thunk.ax>
  103315:	05 0b 10 00 00       	add    $0x100b,%eax
  10331a:	8b 55 08             	mov    0x8(%ebp),%edx
  10331d:	c1 ea 0c             	shr    $0xc,%edx
  103320:	89 55 f4             	mov    %edx,-0xc(%ebp)
  103323:	8b 55 f4             	mov    -0xc(%ebp),%edx
  103326:	c1 ea 05             	shr    $0x5,%edx
  103329:	8b 9c 90 40 3d 00 00 	mov    0x3d40(%eax,%edx,4),%ebx
  103330:	8b 4d f4             	mov    -0xc(%ebp),%ecx
  103333:	83 e1 1f             	and    $0x1f,%ecx
  103336:	be 01 00 00 00       	mov    $0x1,%esi
  10333b:	d3 e6                	shl    %cl,%esi
  10333d:	89 f1                	mov    %esi,%ecx
  10333f:	09 d9                	or     %ebx,%ecx
  103341:	89 8c 90 40 3d 00 00 	mov    %ecx,0x3d40(%eax,%edx,4)
  103348:	90                   	nop
  103349:	83 c4 10             	add    $0x10,%esp
  10334c:	5b                   	pop    %ebx
  10334d:	5e                   	pop    %esi
  10334e:	5d                   	pop    %ebp
  10334f:	c3                   	ret    

00103350 <init_pmm>:
  103350:	55                   	push   %ebp
  103351:	89 e5                	mov    %esp,%ebp
  103353:	53                   	push   %ebx
  103354:	83 ec 24             	sub    $0x24,%esp
  103357:	e8 61 05 00 00       	call   1038bd <__x86.get_pc_thunk.bx>
  10335c:	81 c3 c4 0f 00 00    	add    $0xfc4,%ebx
  103362:	8b 45 08             	mov    0x8(%ebp),%eax
  103365:	8b 40 30             	mov    0x30(%eax),%eax
  103368:	89 45 f4             	mov    %eax,-0xc(%ebp)
  10336b:	8b 45 08             	mov    0x8(%ebp),%eax
  10336e:	8b 40 30             	mov    0x30(%eax),%eax
  103371:	89 c2                	mov    %eax,%edx
  103373:	8b 45 08             	mov    0x8(%ebp),%eax
  103376:	8b 40 2c             	mov    0x2c(%eax),%eax
  103379:	01 d0                	add    %edx,%eax
  10337b:	89 45 e4             	mov    %eax,-0x1c(%ebp)
  10337e:	eb 4b                	jmp    1033cb <init_pmm+0x7b>
  103380:	8b 45 f4             	mov    -0xc(%ebp),%eax
  103383:	8b 40 14             	mov    0x14(%eax),%eax
  103386:	83 f8 01             	cmp    $0x1,%eax
  103389:	75 3c                	jne    1033c7 <init_pmm+0x77>
  10338b:	8b 45 f4             	mov    -0xc(%ebp),%eax
  10338e:	8b 50 08             	mov    0x8(%eax),%edx
  103391:	8b 40 04             	mov    0x4(%eax),%eax
  103394:	89 45 f0             	mov    %eax,-0x10(%ebp)
  103397:	8b 45 f4             	mov    -0xc(%ebp),%eax
  10339a:	8b 50 10             	mov    0x10(%eax),%edx
  10339d:	8b 40 0c             	mov    0xc(%eax),%eax
  1033a0:	89 c2                	mov    %eax,%edx
  1033a2:	8b 45 f0             	mov    -0x10(%ebp),%eax
  1033a5:	01 d0                	add    %edx,%eax
  1033a7:	89 45 dc             	mov    %eax,-0x24(%ebp)
  1033aa:	eb 13                	jmp    1033bf <init_pmm+0x6f>
  1033ac:	8b 45 f0             	mov    -0x10(%ebp),%eax
  1033af:	50                   	push   %eax
  1033b0:	e8 53 ff ff ff       	call   103308 <pmm_free>
  1033b5:	83 c4 04             	add    $0x4,%esp
  1033b8:	81 45 f0 00 10 00 00 	addl   $0x1000,-0x10(%ebp)
  1033bf:	8b 45 f0             	mov    -0x10(%ebp),%eax
  1033c2:	3b 45 dc             	cmp    -0x24(%ebp),%eax
  1033c5:	72 e5                	jb     1033ac <init_pmm+0x5c>
  1033c7:	83 45 f4 18          	addl   $0x18,-0xc(%ebp)
  1033cb:	8b 45 f4             	mov    -0xc(%ebp),%eax
  1033ce:	3b 45 e4             	cmp    -0x1c(%ebp),%eax
  1033d1:	72 ad                	jb     103380 <init_pmm+0x30>
  1033d3:	c7 c0 00 00 10 00    	mov    $0x100000,%eax
  1033d9:	89 45 ec             	mov    %eax,-0x14(%ebp)
  1033dc:	eb 13                	jmp    1033f1 <init_pmm+0xa1>
  1033de:	8b 45 ec             	mov    -0x14(%ebp),%eax
  1033e1:	50                   	push   %eax
  1033e2:	e8 26 fe ff ff       	call   10320d <pmm_mark_used>
  1033e7:	83 c4 04             	add    $0x4,%esp
  1033ea:	81 45 ec 00 10 00 00 	addl   $0x1000,-0x14(%ebp)
  1033f1:	c7 c0 00 90 12 00    	mov    $0x129000,%eax
  1033f7:	39 45 ec             	cmp    %eax,-0x14(%ebp)
  1033fa:	72 e2                	jb     1033de <init_pmm+0x8e>
  1033fc:	8b 45 08             	mov    0x8(%ebp),%eax
  1033ff:	8b 40 18             	mov    0x18(%eax),%eax
  103402:	89 45 e0             	mov    %eax,-0x20(%ebp)
  103405:	ff 75 08             	pushl  0x8(%ebp)
  103408:	e8 00 fe ff ff       	call   10320d <pmm_mark_used>
  10340d:	83 c4 04             	add    $0x4,%esp
  103410:	ff 75 e0             	pushl  -0x20(%ebp)
  103413:	e8 f5 fd ff ff       	call   10320d <pmm_mark_used>
  103418:	83 c4 04             	add    $0x4,%esp
  10341b:	c7 45 e8 00 00 00 00 	movl   $0x0,-0x18(%ebp)
  103422:	eb 40                	jmp    103464 <init_pmm+0x114>
  103424:	8b 45 e8             	mov    -0x18(%ebp),%eax
  103427:	c1 e0 04             	shl    $0x4,%eax
  10342a:	89 c2                	mov    %eax,%edx
  10342c:	8b 45 e0             	mov    -0x20(%ebp),%eax
  10342f:	01 d0                	add    %edx,%eax
  103431:	8b 00                	mov    (%eax),%eax
  103433:	89 45 ec             	mov    %eax,-0x14(%ebp)
  103436:	eb 13                	jmp    10344b <init_pmm+0xfb>
  103438:	8b 45 ec             	mov    -0x14(%ebp),%eax
  10343b:	50                   	push   %eax
  10343c:	e8 cc fd ff ff       	call   10320d <pmm_mark_used>
  103441:	83 c4 04             	add    $0x4,%esp
  103444:	81 45 ec 00 10 00 00 	addl   $0x1000,-0x14(%ebp)
  10344b:	8b 45 e8             	mov    -0x18(%ebp),%eax
  10344e:	c1 e0 04             	shl    $0x4,%eax
  103451:	89 c2                	mov    %eax,%edx
  103453:	8b 45 e0             	mov    -0x20(%ebp),%eax
  103456:	01 d0                	add    %edx,%eax
  103458:	8b 40 04             	mov    0x4(%eax),%eax
  10345b:	39 45 ec             	cmp    %eax,-0x14(%ebp)
  10345e:	72 d8                	jb     103438 <init_pmm+0xe8>
  103460:	83 45 e8 01          	addl   $0x1,-0x18(%ebp)
  103464:	8b 45 08             	mov    0x8(%ebp),%eax
  103467:	8b 40 14             	mov    0x14(%eax),%eax
  10346a:	39 45 e8             	cmp    %eax,-0x18(%ebp)
  10346d:	7c b5                	jl     103424 <init_pmm+0xd4>
  10346f:	90                   	nop
  103470:	90                   	nop
  103471:	8b 5d fc             	mov    -0x4(%ebp),%ebx
  103474:	c9                   	leave  
  103475:	c3                   	ret    

00103476 <vmm_map_page>:
  103476:	55                   	push   %ebp
  103477:	89 e5                	mov    %esp,%ebp
  103479:	53                   	push   %ebx
  10347a:	83 ec 24             	sub    $0x24,%esp
  10347d:	e8 3f 04 00 00       	call   1038c1 <__x86.get_pc_thunk.ax>
  103482:	05 9e 0e 00 00       	add    $0xe9e,%eax
  103487:	8b 55 0c             	mov    0xc(%ebp),%edx
  10348a:	c1 ea 0c             	shr    $0xc,%edx
  10348d:	89 55 ec             	mov    %edx,-0x14(%ebp)
  103490:	8b 55 ec             	mov    -0x14(%ebp),%edx
  103493:	c1 ea 0a             	shr    $0xa,%edx
  103496:	89 55 e8             	mov    %edx,-0x18(%ebp)
  103499:	8b 55 ec             	mov    -0x14(%ebp),%edx
  10349c:	81 e2 ff 03 00 00    	and    $0x3ff,%edx
  1034a2:	89 55 e4             	mov    %edx,-0x1c(%ebp)
  1034a5:	8b 55 0c             	mov    0xc(%ebp),%edx
  1034a8:	81 e2 ff 0f 00 00    	and    $0xfff,%edx
  1034ae:	85 d2                	test   %edx,%edx
  1034b0:	75 0d                	jne    1034bf <vmm_map_page+0x49>
  1034b2:	8b 55 10             	mov    0x10(%ebp),%edx
  1034b5:	81 e2 ff 0f 00 00    	and    $0xfff,%edx
  1034bb:	85 d2                	test   %edx,%edx
  1034bd:	74 0a                	je     1034c9 <vmm_map_page+0x53>
  1034bf:	b8 ff ff ff ff       	mov    $0xffffffff,%eax
  1034c4:	e9 9a 00 00 00       	jmp    103563 <vmm_map_page+0xed>
  1034c9:	8b 55 08             	mov    0x8(%ebp),%edx
  1034cc:	8b 12                	mov    (%edx),%edx
  1034ce:	8b 4d e8             	mov    -0x18(%ebp),%ecx
  1034d1:	c1 e1 02             	shl    $0x2,%ecx
  1034d4:	01 ca                	add    %ecx,%edx
  1034d6:	8b 12                	mov    (%edx),%edx
  1034d8:	83 e2 01             	and    $0x1,%edx
  1034db:	85 d2                	test   %edx,%edx
  1034dd:	74 19                	je     1034f8 <vmm_map_page+0x82>
  1034df:	8b 45 08             	mov    0x8(%ebp),%eax
  1034e2:	8b 00                	mov    (%eax),%eax
  1034e4:	8b 55 e8             	mov    -0x18(%ebp),%edx
  1034e7:	c1 e2 02             	shl    $0x2,%edx
  1034ea:	01 d0                	add    %edx,%eax
  1034ec:	8b 00                	mov    (%eax),%eax
  1034ee:	25 00 f0 ff ff       	and    $0xfffff000,%eax
  1034f3:	89 45 f4             	mov    %eax,-0xc(%ebp)
  1034f6:	eb 4e                	jmp    103546 <vmm_map_page+0xd0>
  1034f8:	89 c3                	mov    %eax,%ebx
  1034fa:	e8 58 fd ff ff       	call   103257 <pmm_alloc>
  1034ff:	89 45 f4             	mov    %eax,-0xc(%ebp)
  103502:	c7 45 f0 00 00 00 00 	movl   $0x0,-0x10(%ebp)
  103509:	eb 19                	jmp    103524 <vmm_map_page+0xae>
  10350b:	8b 45 f0             	mov    -0x10(%ebp),%eax
  10350e:	8d 14 85 00 00 00 00 	lea    0x0(,%eax,4),%edx
  103515:	8b 45 f4             	mov    -0xc(%ebp),%eax
  103518:	01 d0                	add    %edx,%eax
  10351a:	c7 00 00 00 00 00    	movl   $0x0,(%eax)
  103520:	83 45 f0 01          	addl   $0x1,-0x10(%ebp)
  103524:	81 7d f0 ff 03 00 00 	cmpl   $0x3ff,-0x10(%ebp)
  10352b:	7e de                	jle    10350b <vmm_map_page+0x95>
  10352d:	8b 45 f4             	mov    -0xc(%ebp),%eax
  103530:	83 c8 07             	or     $0x7,%eax
  103533:	89 c1                	mov    %eax,%ecx
  103535:	8b 45 08             	mov    0x8(%ebp),%eax
  103538:	8b 00                	mov    (%eax),%eax
  10353a:	8b 55 e8             	mov    -0x18(%ebp),%edx
  10353d:	c1 e2 02             	shl    $0x2,%edx
  103540:	01 d0                	add    %edx,%eax
  103542:	89 ca                	mov    %ecx,%edx
  103544:	89 10                	mov    %edx,(%eax)
  103546:	8b 45 e4             	mov    -0x1c(%ebp),%eax
  103549:	8d 14 85 00 00 00 00 	lea    0x0(,%eax,4),%edx
  103550:	8b 45 f4             	mov    -0xc(%ebp),%eax
  103553:	01 d0                	add    %edx,%eax
  103555:	8b 55 10             	mov    0x10(%ebp),%edx
  103558:	83 ca 07             	or     $0x7,%edx
  10355b:	89 10                	mov    %edx,(%eax)
  10355d:	8b 45 0c             	mov    0xc(%ebp),%eax
  103560:	0f 01 38             	invlpg (%eax)
  103563:	83 c4 24             	add    $0x24,%esp
  103566:	5b                   	pop    %ebx
  103567:	5d                   	pop    %ebp
  103568:	c3                   	ret    

00103569 <vmm_activate_context>:
  103569:	55                   	push   %ebp
  10356a:	89 e5                	mov    %esp,%ebp
  10356c:	e8 50 03 00 00       	call   1038c1 <__x86.get_pc_thunk.ax>
  103571:	05 af 0d 00 00       	add    $0xdaf,%eax
  103576:	8b 45 08             	mov    0x8(%ebp),%eax
  103579:	8b 00                	mov    (%eax),%eax
  10357b:	0f 22 d8             	mov    %eax,%cr3
  10357e:	90                   	nop
  10357f:	5d                   	pop    %ebp
  103580:	c3                   	ret    

00103581 <vmm_create_context>:
  103581:	55                   	push   %ebp
  103582:	89 e5                	mov    %esp,%ebp
  103584:	53                   	push   %ebx
  103585:	83 ec 14             	sub    $0x14,%esp
  103588:	e8 30 03 00 00       	call   1038bd <__x86.get_pc_thunk.bx>
  10358d:	81 c3 93 0d 00 00    	add    $0xd93,%ebx
  103593:	e8 bf fc ff ff       	call   103257 <pmm_alloc>
  103598:	89 45 f0             	mov    %eax,-0x10(%ebp)
  10359b:	e8 b7 fc ff ff       	call   103257 <pmm_alloc>
  1035a0:	8b 55 f0             	mov    -0x10(%ebp),%edx
  1035a3:	89 02                	mov    %eax,(%edx)
  1035a5:	c7 45 f4 00 00 00 00 	movl   $0x0,-0xc(%ebp)
  1035ac:	eb 17                	jmp    1035c5 <vmm_create_context+0x44>
  1035ae:	8b 45 f0             	mov    -0x10(%ebp),%eax
  1035b1:	8b 00                	mov    (%eax),%eax
  1035b3:	8b 55 f4             	mov    -0xc(%ebp),%edx
  1035b6:	c1 e2 02             	shl    $0x2,%edx
  1035b9:	01 d0                	add    %edx,%eax
  1035bb:	c7 00 00 00 00 00    	movl   $0x0,(%eax)
  1035c1:	83 45 f4 01          	addl   $0x1,-0xc(%ebp)
  1035c5:	81 7d f4 ff 03 00 00 	cmpl   $0x3ff,-0xc(%ebp)
  1035cc:	7e e0                	jle    1035ae <vmm_create_context+0x2d>
  1035ce:	8b 45 f0             	mov    -0x10(%ebp),%eax
  1035d1:	83 c4 14             	add    $0x14,%esp
  1035d4:	5b                   	pop    %ebx
  1035d5:	5d                   	pop    %ebp
  1035d6:	c3                   	ret    

001035d7 <init_vmm>:
  1035d7:	55                   	push   %ebp
  1035d8:	89 e5                	mov    %esp,%ebp
  1035da:	53                   	push   %ebx
  1035db:	83 ec 14             	sub    $0x14,%esp
  1035de:	e8 da 02 00 00       	call   1038bd <__x86.get_pc_thunk.bx>
  1035e3:	81 c3 3d 0d 00 00    	add    $0xd3d,%ebx
  1035e9:	e8 93 ff ff ff       	call   103581 <vmm_create_context>
  1035ee:	89 83 40 3d 02 00    	mov    %eax,0x23d40(%ebx)
  1035f4:	c7 45 f4 00 00 00 00 	movl   $0x0,-0xc(%ebp)
  1035fb:	eb 21                	jmp    10361e <init_vmm+0x47>
  1035fd:	8b 4d f4             	mov    -0xc(%ebp),%ecx
  103600:	8b 55 f4             	mov    -0xc(%ebp),%edx
  103603:	8b 83 40 3d 02 00    	mov    0x23d40(%ebx),%eax
  103609:	83 ec 04             	sub    $0x4,%esp
  10360c:	51                   	push   %ecx
  10360d:	52                   	push   %edx
  10360e:	50                   	push   %eax
  10360f:	e8 62 fe ff ff       	call   103476 <vmm_map_page>
  103614:	83 c4 10             	add    $0x10,%esp
  103617:	81 45 f4 00 10 00 00 	addl   $0x1000,-0xc(%ebp)
  10361e:	81 7d f4 ff ff 3f 00 	cmpl   $0x3fffff,-0xc(%ebp)
  103625:	7e d6                	jle    1035fd <init_vmm+0x26>
  103627:	8b 83 40 3d 02 00    	mov    0x23d40(%ebx),%eax
  10362d:	83 ec 0c             	sub    $0xc,%esp
  103630:	50                   	push   %eax
  103631:	e8 33 ff ff ff       	call   103569 <vmm_activate_context>
  103636:	83 c4 10             	add    $0x10,%esp
  103639:	0f 20 c0             	mov    %cr0,%eax
  10363c:	89 45 f0             	mov    %eax,-0x10(%ebp)
  10363f:	81 4d f0 00 00 00 80 	orl    $0x80000000,-0x10(%ebp)
  103646:	8b 45 f0             	mov    -0x10(%ebp),%eax
  103649:	0f 22 c0             	mov    %eax,%cr0
  10364c:	90                   	nop
  10364d:	8b 5d fc             	mov    -0x4(%ebp),%ebx
  103650:	c9                   	leave  
  103651:	c3                   	ret    
  103652:	66 90                	xchg   %ax,%ax
  103654:	66 90                	xchg   %ax,%ax
  103656:	66 90                	xchg   %ax,%ax
  103658:	66 90                	xchg   %ax,%ax
  10365a:	66 90                	xchg   %ax,%ax
  10365c:	66 90                	xchg   %ax,%ax
  10365e:	66 90                	xchg   %ax,%ax

00103660 <__udivdi3>:
  103660:	55                   	push   %ebp
  103661:	57                   	push   %edi
  103662:	56                   	push   %esi
  103663:	53                   	push   %ebx
  103664:	83 ec 1c             	sub    $0x1c,%esp
  103667:	8b 54 24 3c          	mov    0x3c(%esp),%edx
  10366b:	8b 6c 24 30          	mov    0x30(%esp),%ebp
  10366f:	8b 74 24 34          	mov    0x34(%esp),%esi
  103673:	8b 5c 24 38          	mov    0x38(%esp),%ebx
  103677:	85 d2                	test   %edx,%edx
  103679:	75 1d                	jne    103698 <__udivdi3+0x38>
  10367b:	39 f3                	cmp    %esi,%ebx
  10367d:	76 51                	jbe    1036d0 <__udivdi3+0x70>
  10367f:	31 ff                	xor    %edi,%edi
  103681:	89 e8                	mov    %ebp,%eax
  103683:	89 f2                	mov    %esi,%edx
  103685:	f7 f3                	div    %ebx
  103687:	89 fa                	mov    %edi,%edx
  103689:	83 c4 1c             	add    $0x1c,%esp
  10368c:	5b                   	pop    %ebx
  10368d:	5e                   	pop    %esi
  10368e:	5f                   	pop    %edi
  10368f:	5d                   	pop    %ebp
  103690:	c3                   	ret    
  103691:	8d b4 26 00 00 00 00 	lea    0x0(%esi,%eiz,1),%esi
  103698:	39 f2                	cmp    %esi,%edx
  10369a:	76 14                	jbe    1036b0 <__udivdi3+0x50>
  10369c:	31 ff                	xor    %edi,%edi
  10369e:	31 c0                	xor    %eax,%eax
  1036a0:	89 fa                	mov    %edi,%edx
  1036a2:	83 c4 1c             	add    $0x1c,%esp
  1036a5:	5b                   	pop    %ebx
  1036a6:	5e                   	pop    %esi
  1036a7:	5f                   	pop    %edi
  1036a8:	5d                   	pop    %ebp
  1036a9:	c3                   	ret    
  1036aa:	8d b6 00 00 00 00    	lea    0x0(%esi),%esi
  1036b0:	0f bd fa             	bsr    %edx,%edi
  1036b3:	83 f7 1f             	xor    $0x1f,%edi
  1036b6:	75 48                	jne    103700 <__udivdi3+0xa0>
  1036b8:	39 f2                	cmp    %esi,%edx
  1036ba:	72 06                	jb     1036c2 <__udivdi3+0x62>
  1036bc:	31 c0                	xor    %eax,%eax
  1036be:	39 eb                	cmp    %ebp,%ebx
  1036c0:	77 de                	ja     1036a0 <__udivdi3+0x40>
  1036c2:	b8 01 00 00 00       	mov    $0x1,%eax
  1036c7:	eb d7                	jmp    1036a0 <__udivdi3+0x40>
  1036c9:	8d b4 26 00 00 00 00 	lea    0x0(%esi,%eiz,1),%esi
  1036d0:	89 d9                	mov    %ebx,%ecx
  1036d2:	85 db                	test   %ebx,%ebx
  1036d4:	75 0b                	jne    1036e1 <__udivdi3+0x81>
  1036d6:	b8 01 00 00 00       	mov    $0x1,%eax
  1036db:	31 d2                	xor    %edx,%edx
  1036dd:	f7 f3                	div    %ebx
  1036df:	89 c1                	mov    %eax,%ecx
  1036e1:	31 d2                	xor    %edx,%edx
  1036e3:	89 f0                	mov    %esi,%eax
  1036e5:	f7 f1                	div    %ecx
  1036e7:	89 c6                	mov    %eax,%esi
  1036e9:	89 e8                	mov    %ebp,%eax
  1036eb:	89 f7                	mov    %esi,%edi
  1036ed:	f7 f1                	div    %ecx
  1036ef:	89 fa                	mov    %edi,%edx
  1036f1:	83 c4 1c             	add    $0x1c,%esp
  1036f4:	5b                   	pop    %ebx
  1036f5:	5e                   	pop    %esi
  1036f6:	5f                   	pop    %edi
  1036f7:	5d                   	pop    %ebp
  1036f8:	c3                   	ret    
  1036f9:	8d b4 26 00 00 00 00 	lea    0x0(%esi,%eiz,1),%esi
  103700:	89 f9                	mov    %edi,%ecx
  103702:	b8 20 00 00 00       	mov    $0x20,%eax
  103707:	29 f8                	sub    %edi,%eax
  103709:	d3 e2                	shl    %cl,%edx
  10370b:	89 54 24 08          	mov    %edx,0x8(%esp)
  10370f:	89 c1                	mov    %eax,%ecx
  103711:	89 da                	mov    %ebx,%edx
  103713:	d3 ea                	shr    %cl,%edx
  103715:	8b 4c 24 08          	mov    0x8(%esp),%ecx
  103719:	09 d1                	or     %edx,%ecx
  10371b:	89 f2                	mov    %esi,%edx
  10371d:	89 4c 24 08          	mov    %ecx,0x8(%esp)
  103721:	89 f9                	mov    %edi,%ecx
  103723:	d3 e3                	shl    %cl,%ebx
  103725:	89 c1                	mov    %eax,%ecx
  103727:	d3 ea                	shr    %cl,%edx
  103729:	89 f9                	mov    %edi,%ecx
  10372b:	89 5c 24 0c          	mov    %ebx,0xc(%esp)
  10372f:	89 eb                	mov    %ebp,%ebx
  103731:	d3 e6                	shl    %cl,%esi
  103733:	89 c1                	mov    %eax,%ecx
  103735:	d3 eb                	shr    %cl,%ebx
  103737:	09 de                	or     %ebx,%esi
  103739:	89 f0                	mov    %esi,%eax
  10373b:	f7 74 24 08          	divl   0x8(%esp)
  10373f:	89 d6                	mov    %edx,%esi
  103741:	89 c3                	mov    %eax,%ebx
  103743:	f7 64 24 0c          	mull   0xc(%esp)
  103747:	39 d6                	cmp    %edx,%esi
  103749:	72 15                	jb     103760 <__udivdi3+0x100>
  10374b:	89 f9                	mov    %edi,%ecx
  10374d:	d3 e5                	shl    %cl,%ebp
  10374f:	39 c5                	cmp    %eax,%ebp
  103751:	73 04                	jae    103757 <__udivdi3+0xf7>
  103753:	39 d6                	cmp    %edx,%esi
  103755:	74 09                	je     103760 <__udivdi3+0x100>
  103757:	89 d8                	mov    %ebx,%eax
  103759:	31 ff                	xor    %edi,%edi
  10375b:	e9 40 ff ff ff       	jmp    1036a0 <__udivdi3+0x40>
  103760:	8d 43 ff             	lea    -0x1(%ebx),%eax
  103763:	31 ff                	xor    %edi,%edi
  103765:	e9 36 ff ff ff       	jmp    1036a0 <__udivdi3+0x40>
  10376a:	66 90                	xchg   %ax,%ax
  10376c:	66 90                	xchg   %ax,%ax
  10376e:	66 90                	xchg   %ax,%ax

00103770 <__umoddi3>:
  103770:	55                   	push   %ebp
  103771:	57                   	push   %edi
  103772:	56                   	push   %esi
  103773:	53                   	push   %ebx
  103774:	83 ec 1c             	sub    $0x1c,%esp
  103777:	8b 44 24 3c          	mov    0x3c(%esp),%eax
  10377b:	8b 74 24 30          	mov    0x30(%esp),%esi
  10377f:	8b 5c 24 34          	mov    0x34(%esp),%ebx
  103783:	8b 7c 24 38          	mov    0x38(%esp),%edi
  103787:	85 c0                	test   %eax,%eax
  103789:	75 1d                	jne    1037a8 <__umoddi3+0x38>
  10378b:	39 df                	cmp    %ebx,%edi
  10378d:	76 61                	jbe    1037f0 <__umoddi3+0x80>
  10378f:	89 f0                	mov    %esi,%eax
  103791:	89 da                	mov    %ebx,%edx
  103793:	f7 f7                	div    %edi
  103795:	89 d0                	mov    %edx,%eax
  103797:	31 d2                	xor    %edx,%edx
  103799:	83 c4 1c             	add    $0x1c,%esp
  10379c:	5b                   	pop    %ebx
  10379d:	5e                   	pop    %esi
  10379e:	5f                   	pop    %edi
  10379f:	5d                   	pop    %ebp
  1037a0:	c3                   	ret    
  1037a1:	8d b4 26 00 00 00 00 	lea    0x0(%esi,%eiz,1),%esi
  1037a8:	89 f2                	mov    %esi,%edx
  1037aa:	39 d8                	cmp    %ebx,%eax
  1037ac:	76 12                	jbe    1037c0 <__umoddi3+0x50>
  1037ae:	89 f0                	mov    %esi,%eax
  1037b0:	89 da                	mov    %ebx,%edx
  1037b2:	83 c4 1c             	add    $0x1c,%esp
  1037b5:	5b                   	pop    %ebx
  1037b6:	5e                   	pop    %esi
  1037b7:	5f                   	pop    %edi
  1037b8:	5d                   	pop    %ebp
  1037b9:	c3                   	ret    
  1037ba:	8d b6 00 00 00 00    	lea    0x0(%esi),%esi
  1037c0:	0f bd e8             	bsr    %eax,%ebp
  1037c3:	83 f5 1f             	xor    $0x1f,%ebp
  1037c6:	75 50                	jne    103818 <__umoddi3+0xa8>
  1037c8:	39 d8                	cmp    %ebx,%eax
  1037ca:	0f 82 e0 00 00 00    	jb     1038b0 <__umoddi3+0x140>
  1037d0:	89 d9                	mov    %ebx,%ecx
  1037d2:	39 f7                	cmp    %esi,%edi
  1037d4:	0f 86 d6 00 00 00    	jbe    1038b0 <__umoddi3+0x140>
  1037da:	89 d0                	mov    %edx,%eax
  1037dc:	89 ca                	mov    %ecx,%edx
  1037de:	83 c4 1c             	add    $0x1c,%esp
  1037e1:	5b                   	pop    %ebx
  1037e2:	5e                   	pop    %esi
  1037e3:	5f                   	pop    %edi
  1037e4:	5d                   	pop    %ebp
  1037e5:	c3                   	ret    
  1037e6:	8d b4 26 00 00 00 00 	lea    0x0(%esi,%eiz,1),%esi
  1037ed:	8d 76 00             	lea    0x0(%esi),%esi
  1037f0:	89 fd                	mov    %edi,%ebp
  1037f2:	85 ff                	test   %edi,%edi
  1037f4:	75 0b                	jne    103801 <__umoddi3+0x91>
  1037f6:	b8 01 00 00 00       	mov    $0x1,%eax
  1037fb:	31 d2                	xor    %edx,%edx
  1037fd:	f7 f7                	div    %edi
  1037ff:	89 c5                	mov    %eax,%ebp
  103801:	89 d8                	mov    %ebx,%eax
  103803:	31 d2                	xor    %edx,%edx
  103805:	f7 f5                	div    %ebp
  103807:	89 f0                	mov    %esi,%eax
  103809:	f7 f5                	div    %ebp
  10380b:	89 d0                	mov    %edx,%eax
  10380d:	31 d2                	xor    %edx,%edx
  10380f:	eb 88                	jmp    103799 <__umoddi3+0x29>
  103811:	8d b4 26 00 00 00 00 	lea    0x0(%esi,%eiz,1),%esi
  103818:	89 e9                	mov    %ebp,%ecx
  10381a:	ba 20 00 00 00       	mov    $0x20,%edx
  10381f:	29 ea                	sub    %ebp,%edx
  103821:	d3 e0                	shl    %cl,%eax
  103823:	89 44 24 08          	mov    %eax,0x8(%esp)
  103827:	89 d1                	mov    %edx,%ecx
  103829:	89 f8                	mov    %edi,%eax
  10382b:	d3 e8                	shr    %cl,%eax
  10382d:	8b 4c 24 08          	mov    0x8(%esp),%ecx
  103831:	89 54 24 04          	mov    %edx,0x4(%esp)
  103835:	8b 54 24 04          	mov    0x4(%esp),%edx
  103839:	09 c1                	or     %eax,%ecx
  10383b:	89 d8                	mov    %ebx,%eax
  10383d:	89 4c 24 08          	mov    %ecx,0x8(%esp)
  103841:	89 e9                	mov    %ebp,%ecx
  103843:	d3 e7                	shl    %cl,%edi
  103845:	89 d1                	mov    %edx,%ecx
  103847:	d3 e8                	shr    %cl,%eax
  103849:	89 e9                	mov    %ebp,%ecx
  10384b:	89 7c 24 0c          	mov    %edi,0xc(%esp)
  10384f:	d3 e3                	shl    %cl,%ebx
  103851:	89 c7                	mov    %eax,%edi
  103853:	89 d1                	mov    %edx,%ecx
  103855:	89 f0                	mov    %esi,%eax
  103857:	d3 e8                	shr    %cl,%eax
  103859:	89 e9                	mov    %ebp,%ecx
  10385b:	89 fa                	mov    %edi,%edx
  10385d:	d3 e6                	shl    %cl,%esi
  10385f:	09 d8                	or     %ebx,%eax
  103861:	f7 74 24 08          	divl   0x8(%esp)
  103865:	89 d1                	mov    %edx,%ecx
  103867:	89 f3                	mov    %esi,%ebx
  103869:	f7 64 24 0c          	mull   0xc(%esp)
  10386d:	89 c6                	mov    %eax,%esi
  10386f:	89 d7                	mov    %edx,%edi
  103871:	39 d1                	cmp    %edx,%ecx
  103873:	72 06                	jb     10387b <__umoddi3+0x10b>
  103875:	75 10                	jne    103887 <__umoddi3+0x117>
  103877:	39 c3                	cmp    %eax,%ebx
  103879:	73 0c                	jae    103887 <__umoddi3+0x117>
  10387b:	2b 44 24 0c          	sub    0xc(%esp),%eax
  10387f:	1b 54 24 08          	sbb    0x8(%esp),%edx
  103883:	89 d7                	mov    %edx,%edi
  103885:	89 c6                	mov    %eax,%esi
  103887:	89 ca                	mov    %ecx,%edx
  103889:	0f b6 4c 24 04       	movzbl 0x4(%esp),%ecx
  10388e:	29 f3                	sub    %esi,%ebx
  103890:	19 fa                	sbb    %edi,%edx
  103892:	89 d0                	mov    %edx,%eax
  103894:	d3 e0                	shl    %cl,%eax
  103896:	89 e9                	mov    %ebp,%ecx
  103898:	d3 eb                	shr    %cl,%ebx
  10389a:	d3 ea                	shr    %cl,%edx
  10389c:	09 d8                	or     %ebx,%eax
  10389e:	83 c4 1c             	add    $0x1c,%esp
  1038a1:	5b                   	pop    %ebx
  1038a2:	5e                   	pop    %esi
  1038a3:	5f                   	pop    %edi
  1038a4:	5d                   	pop    %ebp
  1038a5:	c3                   	ret    
  1038a6:	8d b4 26 00 00 00 00 	lea    0x0(%esi,%eiz,1),%esi
  1038ad:	8d 76 00             	lea    0x0(%esi),%esi
  1038b0:	29 fe                	sub    %edi,%esi
  1038b2:	19 c3                	sbb    %eax,%ebx
  1038b4:	89 f2                	mov    %esi,%edx
  1038b6:	89 d9                	mov    %ebx,%ecx
  1038b8:	e9 1d ff ff ff       	jmp    1037da <__umoddi3+0x6a>

Disassembly of section .text.__x86.get_pc_thunk.bx:

001038bd <__x86.get_pc_thunk.bx>:
  1038bd:	8b 1c 24             	mov    (%esp),%ebx
  1038c0:	c3                   	ret    

Disassembly of section .text.__x86.get_pc_thunk.ax:

001038c1 <__x86.get_pc_thunk.ax>:
  1038c1:	8b 04 24             	mov    (%esp),%eax
  1038c4:	c3                   	ret    

Disassembly of section .text.__x86.get_pc_thunk.dx:

001038c5 <__x86.get_pc_thunk.dx>:
  1038c5:	8b 14 24             	mov    (%esp),%edx
  1038c8:	c3                   	ret    

Disassembly of section .text.__x86.get_pc_thunk.cx:

001038c9 <__x86.get_pc_thunk.cx>:
  1038c9:	8b 0c 24             	mov    (%esp),%ecx
  1038cc:	c3                   	ret    
